(dp1
(Vtmall_url_shop
S'success'
tp2
ccopy_reg
_reconstructor
p3
(cpyspider.libs.counter
TimebaseAverageWindowCounter
p4
c__builtin__
object
p5
NtRp6
(dp7
S'_first_data_time'
p8
F1478445069.6058531
sS'window_size'
p9
I600
sS'times'
p10
ccollections
deque
p11
((lp12
F1478447738.435703
aF1478447906.3477769
aF1478448050.4481361
aF1478448220.089452
aF1478448374.439436
aF1478448525.236376
aF1478448671.5582249
aF1478448817.7826829
aF1478448964.1751039
aF1478449114.7036469
aF1478449261.831357
aF1478449406.03792
aF1478449552.4545231
aF1478449699.6949351
aF1478449849.4793079
aF1478450001.3128459
aF1478450154.576643
aF1478450300.7207141
aF1478450447.4200461
aF1478450593.0710821
aF1478450738.1727581
aF1478450889.97068
aF1478451036.3067181
aF1478451184.734653
aF1478451337.419652
aF1478451492.6308081
aF1478451638.9828041
aF1478451786.6621909
aF1478451934.718204
aF1478452080.322325
aF1478452225.854666
aF1478452373.0295391
aF1478452523.5484619
aF1478452670.811466
aF1478452816.937206
aF1478452966.0986099
aF1478453113.3717289
aF1478453257.7803349
aF1478453403.5462921
aF1478453547.8653319
aF1478453692.194649
aF1478453837.1550591
aF1478453981.685329
aF1478454126.009306
aF1478454272.9112451
aF1478454419.5314209
aF1478454574.620517
aF1478454721.103008
aF1478454869.5438261
aF1478455018.155117
aF1478455169.954572
aF1478455314.9849701
aF1478455461.9602051
aF1478455610.456517
aF1478455760.3262601
aF1478455905.2020459
aF1478456054.1964321
aF1478456199.4080751
aF1478456343.9969029
aF1478456491.9465239
aF1478456637.5727341
aF1478456784.3840461
aF1478456932.335717
aF1478457078.1479909
aF1478457225.097482
aF1478457373.7411749
aF1478457518.5696449
aF1478457665.4936509
aF1478457814.5861161
aF1478457959.201031
aF1478458106.0411689
aF1478458254.9136059
aF1478458399.8380539
aF1478458546.4566979
aF1478458693.3873529
aF1478458840.2334199
aF1478458989.064656
aF1478459135.093328
aF1478459285.6746991
aF1478459432.8250611
aF1478459579.631197
aF1478459727.3767681
aF1478459873.8932481
aF1478460019.928627
aF1478460166.766891
aF1478460313.6228831
aF1478460460.436033
aF1478460607.383857
aF1478460754.5337939
aF1478460900.948194
aF1478461047.7759969
aF1478461196.3224199
aF1478461341.5147109
aF1478461488.367723
aF1478461636.324156
aF1478461781.936336
aF1478461928.7976041
aF1478462073.8139169
aF1478462223.1558471
aF1478462369.600044
aF1478462516.246367
aF1478462665.1440139
aF1478462809.936173
aF1478462956.7673111
aF1478463100.981142
aF1478463245.498924
aF1478463392.22575
aF1478463539.9682381
aF1478463686.6223171
aF1478463834.3523231
aF1478463979.482312
aF1478464126.3120699
aF1478464273.324681
aF1478464422.2037899
aF1478464566.9157951
aF1478464713.762048
aF1478464860.5824659
aF1478465009.2403679
aF1478465155.360523
aF1478465301.0837829
aF1478465447.9586539
aF1478465594.820812
aF1478465741.5554149
aF1478465888.4904361
aF1478466033.4279289
aF1478466179.1651399
aF1478466323.988369
aF1478466470.9017229
aF1478466617.653527
aF1478466764.5005031
aF1478466911.813386
aF1478467058.071923
aF1478467207.1506879
aF1478467351.7679429
aF1478467500.9457381
aF1478467645.5309589
aF1478467792.8882251
aF1478467940.5610681
aF1478468086.101685
aF1478468232.939379
aF1478468379.677331
aF1478468526.4999421
aF1478468674.870014
aF1478468820.2617371
aF1478468967.212023
aF1478469114.1641359
aF1478469260.8080881
aF1478469407.5599229
aF1478469554.403971
aF1478469701.9535761
aF1478469848.065495
aF1478469993.109865
aF1478470137.1241441
aF1478470285.8111989
aF1478470430.416512
aF1478470579.3877709
aF1478470724.734391
aF1478470872.6814499
aF1478471017.819319
aF1478471164.6757791
aF1478471311.5235989
aF1478471458.9672151
aF1478471605.30074
aF1478471752.075511
aF1478471899.004158
aF1478472045.8379409
aF1478472194.600929
aF1478472339.531445
aF1478472486.481535
aF1478472633.8217659
aF1478478629.3047869
aF1478478779.345367
aF1478478959.592062
aF1478479103.8142941
aF1478479305.7591169
aF1478479451.8910561
aF1478479598.385355
aF1478479744.890898
aF1478479891.478653
aF1478480038.009897
aF1478480187.6334829
aF1478480339.029958
aF1478480500.3472431
aF1478480651.7634089
aI600
tRp13
sS'window_interval'
p14
I144
sS'values'
p15
g11
((lp16
I30
aI26
aI36
aI32
aI28
aI34
aI28
aI28
aI31
aI28
aI31
aI27
aI31
aI29
aI30
aI30
aI29
aI29
aI30
aI28
aI30
aI28
aI30
aI29
aI31
aI30
aI29
aI30
aI29
aI29
aI29
aI28
aI31
aI28
aI30
aI28
aI30
aI29
aI26
aI31
aI28
aI29
aI28
aI30
aI25
aI32
aI31
aI29
aI28
aI31
aI30
aI27
aI32
aI29
aI28
aI30
aI29
aI29
aI29
aI29
aI29
aI29
aI29
aI29
aI29
aI29
aI29
aI29
aI29
aI29
aI29
aI29
aI29
aI29
aI29
aI29
aI29
aI30
aI29
aI28
aI30
aI29
aI29
aI29
aI29
aI29
aI29
aI29
aI29
aI29
aI29
aI29
aI29
aI29
aI29
aI29
aI29
aI29
aI29
aI29
aI29
aI29
aI29
aI28
aI29
aI29
aI29
aI29
aI29
aI29
aI29
aI29
aI29
aI29
aI29
aI29
aI29
aI29
aI29
aI29
aI29
aI29
aI29
aI29
aI28
aI29
aI29
aI29
aI29
aI29
aI29
aI29
aI29
aI29
aI29
aI29
aI29
aI29
aI29
aI29
aI29
aI29
aI29
aI29
aI29
aI29
aI29
aI29
aI29
aI29
aI29
aI28
aI29
aI29
aI29
aI29
aI29
aI29
aI29
aI29
aI29
aI29
aI29
aI29
aI29
aI29
aI29
aI29
aI29
aI11
aI23
aI26
aI22
aI4
aI28
aI29
aI29
aI29
aI29
aI22
aI10
aI12
aI10
aI10
aI600
tRp17
sS'cache_value'
p18
I0
sS'max_window_size'
p19
I600
sS'cache_start'
p20
Nsbs(Vtmall_seckill
S'retry'
p21
tp22
g3
(g4
g5
NtRp23
(dp24
g8
F1478517178.7238641
sg9
F117.22140521473355
sg10
g11
((lp25
F1478517178.7238641
aF1478517671.494117
aF1478518426.77983
aF1478518661.789851
aF1478518814.5693769
aF1478519095.342447
aF1478519262.628345
aF1478519415.417285
aF1478519603.015353
aF1478519872.002645
aF1478520031.6521389
aF1478520196.170994
aF1478520440.0745289
aF1478520585.9912879
aF1478520732.0088911
aF1478520924.7670889
aF1478521090.705687
aF1478521250.327172
aF1478521834.5990219
aF1478521983.0707381
aF1478522210.80972
aF1478522357.096112
aF1478522574.84092
aF1478522746.545366
aF1478522940.0761681
aF1478523150.8927989
aF1478523303.3032539
aF1478523469.5192621
aF1478523732.512099
aF1478523889.354928
aF1478524101.359201
aF1478524343.6780009
aF1478524492.6673839
aF1478524683.3384531
aF1478524829.121619
aF1478524991.5403371
aF1478533909.7806489
aI600
tRp26
sg14
I144
sg15
g11
((lp27
I1
aI2
aI1
aI1
aI2
aI5
aI6
aI5
aI7
aI9
aI2
aI2
aI5
aI27
aI14
aI4
aI26
aI20
aI13
aI2
aI1
aI6
aI1
aI3
aI6
aI2
aI3
aI4
aI11
aI9
aI2
aI7
aI5
aI2
aI2
aI3
aI5
aI600
tRp28
sg18
I0
sg19
I600
sg20
Nsbs(S'tmall_url_shop'
S'pending'
tp29
g3
(g4
g5
NtRp30
(dp31
g8
F1478445069.2269919
sg9
I600
sg10
g11
((lp32
F1478455492.5520029
aF1478456210.5427599
aF1478456483.845058
aF1478456716.7442169
aF1478456949.6433001
aF1478457182.4600389
aF1478457415.459703
aF1478457648.377167
aF1478457881.321641
aF1478458114.240556
aF1478458347.182936
aF1478458579.9700639
aF1478458812.9907539
aF1478459045.88533
aF1478459278.792181
aF1478459511.688319
aF1478459744.5960701
aF1478459977.4992011
aF1478460210.4364491
aF1478460443.325578
aF1478460676.260071
aF1478460909.1535299
aF1478461142.04373
aF1478461374.946846
aF1478461607.871042
aF1478461840.794517
aF1478462073.818646
aF1478462306.7140379
aF1478462539.6535411
aF1478462772.5619831
aF1478463005.4798081
aF1478463238.3146269
aF1478463471.329185
aF1478463704.2415881
aF1478463937.1451261
aF1478464170.060638
aF1478464402.953882
aF1478464635.8831179
aF1478464868.798547
aF1478465101.6961501
aF1478465334.6100979
aF1478465567.5766261
aF1478465800.4956391
aF1478466033.4309461
aF1478466266.3641729
aF1478466499.2589891
aF1478466732.18063
aF1478466965.0878601
aF1478467198.0451739
aF1478467430.972785
aF1478467663.879292
aF1478467896.8088169
aF1478468129.745748
aF1478468362.652437
aF1478468595.579505
aF1478468828.4696469
aF1478469061.3997209
aF1478469294.3472109
aF1478469527.2518229
aF1478469760.1929929
aF1478469993.1126261
aF1478470226.057673
aF1478470458.9772899
aF1478470691.8150821
aF1478470924.8558359
aF1478471157.789032
aF1478471390.7323899
aF1478471623.6607389
aF1478471856.585223
aF1478472089.494473
aF1478472322.4125481
aF1478472555.355294
aF1478478628.094372
aF1478478846.884661
aF1478479067.2484021
aF1478479303.7415249
aF1478479450.881001
aF1478479747.9382501
aF1478479970.3836851
aF1478480127.0932939
aF1478480278.4948931
aF1478480440.004988
aF1478480591.180711
aF1478480742.474272
aI600
tRp33
sg14
I144
sg15
g11
((lp34
I141
aI53
aI45
aI45
aI45
aI45
aI45
aI45
aI45
aI45
aI45
aI45
aI45
aI45
aI45
aI45
aI45
aI45
aI45
aI45
aI45
aI45
aI45
aI45
aI45
aI45
aI45
aI45
aI45
aI45
aI45
aI45
aI45
aI45
aI45
aI45
aI45
aI45
aI45
aI45
aI45
aI45
aI45
aI45
aI45
aI45
aI45
aI45
aI45
aI45
aI45
aI45
aI45
aI45
aI45
aI45
aI45
aI45
aI45
aI45
aI45
aI45
aI45
aI45
aI45
aI45
aI45
aI45
aI45
aI45
aI45
aI45
aI46
aI2
aI45
aI1
aI45
aI43
aI30
aI5
aI6
aI5
aI5
aI2
aI600
tRp35
sg18
I0
sg19
I600
sg20
Nsbs(Vtmall_seckill
S'failed'
p36
tp37
g3
(g4
g5
NtRp38
(dp39
g8
F1478520349.398958
sg9
F95.202828110920052
sg10
g11
((lp40
F1478520349.398958
aF1478523235.9257431
aI600
tRp41
sg14
I144
sg15
g11
((lp42
I1
aI1
aI600
tRp43
sg18
I1
sg19
I600
sg20
F1478534049.141969
sbs(S'tmall_seckill'
S'pending'
p44
tp45
g3
(g4
g5
NtRp46
(dp47
g8
F1478517120.347029
sg9
F117.62680002715852
sg10
g11
((lp48
F1478517120.347029
aF1478517303.416059
aF1478517457.8479249
aF1478517635.9411681
aF1478517805.912914
aF1478518018.7894211
aF1478518164.6054759
aF1478518313.0421879
aF1478518457.6462669
aF1478518606.0554571
aF1478518770.884896
aF1478518939.9266601
aF1478519085.8232801
aF1478519233.480679
aF1478519390.9175069
aF1478519574.9604959
aF1478519725.8056431
aF1478519882.9218509
aF1478520031.660136
aF1478520195.6393931
aF1478520344.9242239
aF1478520490.4675951
aF1478520763.700963
aF1478520910.240459
aF1478521066.5081329
aF1478521213.74577
aF1478521888.1657071
aF1478522053.90272
aF1478522203.9475811
aF1478522417.8360541
aF1478522566.6629801
aF1478522790.7092271
aF1478522980.642096
aF1478523128.3490491
aF1478523274.1707821
aF1478523419.2657311
aF1478523570.5258679
aF1478523715.6563361
aF1478523866.7368879
aF1478524022.9633529
aF1478524168.469615
aF1478524330.835279
aF1478524486.0900769
aF1478524640.256295
aF1478524799.6111979
aF1478524948.6978581
aI600
tRp49
sg14
I144
sg15
g11
((lp50
I151
aI25
aI18
aI18
aI15
aI22
aI15
aI13
aI23
aI20
aI29
aI22
aI19
aI38
aI19
aI21
aI50
aI10
aI34
aI21
aI19
aI24
aI46
aI25
aI3
aI2
aI127
aI27
aI36
aI18
aI12
aI9
aI9
aI12
aI18
aI21
aI30
aI21
aI27
aI32
aI16
aI22
aI20
aI60
aI32
aI21
aI600
tRp51
sg18
I77
sg19
I600
sg20
F1478534033.3800399
sbs(Vtmall_seckill
p52
S'success'
p53
tp54
g3
(g4
g5
NtRp55
(dp56
g8
F1478517120.7702661
sg9
F117.62386081947221
sg10
g11
((lp57
F1478517120.7702661
aF1478517302.408066
aF1478517451.9440739
aF1478517597.767585
aF1478517742.5257671
aF1478517889.8844459
aF1478518037.60957
aF1478518183.1261079
aF1478518337.963026
aF1478518482.587723
aF1478518628.9302659
aF1478518777.07126
aF1478518921.87818
aF1478519076.5794439
aF1478519227.6892109
aF1478519374.4817171
aF1478519527.7941661
aF1478519674.9014201
aF1478519820.565433
aF1478519973.2718699
aF1478520121.2795529
aF1478520270.0235729
aF1478520418.86391
aF1478520565.1225851
aF1478520763.695344
aF1478520910.233793
aF1478521056.0795431
aF1478521202.733501
aF1478521888.1603179
aF1478522036.6177609
aF1478522181.1881349
aF1478522327.205689
aF1478522472.6113801
aF1478522619.9334681
aF1478522771.824837
aF1478522919.6354139
aF1478523066.039907
aF1478523211.873893
aF1478523359.7487421
aF1478523505.807622
aF1478523653.2718949
aF1478523807.5531271
aF1478523954.89903
aF1478524106.614979
aF1478524253.574116
aF1478524400.0051711
aF1478524552.3301899
aF1478524700.1149189
aF1478524844.9144721
aF1478524988.9976349
aI600
tRp58
sg14
I144
sg15
g11
((lp59
I11
aI23
aI31
aI26
aI34
aI29
aI21
aI36
aI30
aI26
aI20
aI21
aI24
aI32
aI36
aI26
aI26
aI22
aI27
aI20
aI29
aI30
aI26
aI3
aI25
aI26
aI3
aI4
aI21
aI29
aI28
aI23
aI28
aI27
aI29
aI23
aI28
aI24
aI28
aI26
aI22
aI21
aI26
aI28
aI26
aI23
aI26
aI27
aI25
aI15
aI600
tRp60
sg18
I8
sg19
I600
sg20
F1478534033.373323
sbs.