(dp1
(Vtmall_seckill
p2
S'pending'
p3
tp4
ccopy_reg
_reconstructor
p5
(cpyspider.libs.counter
TotalCounter
p6
c__builtin__
object
p7
NtRp8
(dp9
S'cnt'
p10
I0
sbs(g2
S'success'
p11
tp12
g5
(g6
g7
NtRp13
(dp14
g10
I0
sbs(g2
S'failed'
p15
tp16
g5
(g6
g7
NtRp17
(dp18
g10
I0
sbs.