(dp1
(S'tmall_dangdang'
p2
S'pending'
p3
tp4
ccopy_reg
_reconstructor
p5
(cpyspider.libs.counter
TimebaseAverageWindowCounter
p6
c__builtin__
object
p7
NtRp8
(dp9
S'_first_data_time'
p10
F1478802236.7071719
sS'window_size'
p11
I60
sS'times'
p12
ccollections
deque
p13
((lp14
F1478845745.2074029
aF1478845806.6060929
aF1478845886.3049381
aF1478845966.6301689
aF1478846046.6055701
aF1478846106.882772
aF1478846166.8929851
aF1478846247.744432
aF1478846307.8385589
aF1478846387.1502681
aI60
tRp15
sS'window_interval'
p16
I60
sS'values'
p17
g13
((lp18
I3
aI4
aI4
aI4
aI3
aI3
aI4
aI3
aI4
aI2
aI60
tRp19
sS'cache_value'
p20
I0
sS'max_window_size'
p21
I60
sS'cache_start'
p22
Nsbs(S'tmall_miao'
p23
g3
tp24
g5
(g6
g7
NtRp25
(dp26
g10
F1478836971.7319641
sg11
I60
sg12
g13
((lp27
F1478845817.8275981
aF1478845998.57816
aF1478846058.8278861
aF1478846122.0756919
aF1478846484.9737861
aF1478846551.280494
aF1478846676.5374579
aF1478847038.2925479
aF1478847660.7522471
aF1478847726.6872711
aF1478847907.551115
aF1478847972.8447969
aF1478848044.231755
aF1478848105.482049
aF1478848168.33952
aF1478848469.7601011
aF1478849072.4888999
aF1478849136.201102
aF1478849201.4718931
aF1478849266.6279409
aI60
tRp28
sg16
I60
sg17
g13
((lp29
I15
aI23
aI66
aI35
aI91
aI42
aI16
aI32
aI100
aI9
aI100
aI18
aI17
aI64
aI53
aI16
aI68
aI100
aI52
aI25
aI60
tRp30
sg20
I84
sg21
I60
sg22
F1478849327.0195191
sbs(Vtmall_seckill
g3
tp31
g5
(g6
g7
NtRp32
(dp33
g10
F1478830828.563199
sg11
I60
sg12
g13
((lp34
F1478845803.590193
aF1478845979.127965
aF1478846045.6970961
aF1478846404.164046
aF1478846466.623486
aF1478846646.9741361
aF1478847004.6021941
aF1478847248.425755
aF1478847600.591161
aF1478847849.5114231
aF1478847926.4137449
aF1478848018.8978159
aF1478848082.1876831
aF1478848146.329752
aF1478848450.866956
aF1478848653.4283669
aF1478849053.171051
aF1478849113.4199269
aF1478849253.6127341
aI60
tRp35
sg16
I60
sg17
g13
((lp36
I10
aI29
aI24
aI98
aI22
aI13
aI21
aI8
aI57
aI84
aI2
aI104
aI25
aI7
aI31
aI1
aI63
aI33
aI81
aI60
tRp37
sg20
I10
sg21
I60
sg22
F1478849313.796344
sbs(Vtmall_seckill
S'failed'
p38
tp39
g5
(g6
g7
NtRp40
(dp41
g10
F1478845979.125237
sg11
F55.705106500784559
sg12
g13
((lp42
F1478845979.125237
aI60
tRp43
sg16
I60
sg17
g13
((lp44
I1
aI60
tRp45
sg20
I0
sg21
I60
sg22
Nsbs(Vtmall_miao
p46
S'success'
p47
tp48
g5
(g6
g7
NtRp49
(dp50
g10
F1478836972.1245241
sg11
I60
sg12
g13
((lp51
F1478845757.548373
aF1478845817.8215981
aF1478845878.104845
aF1478845938.3645611
aF1478845998.5653341
aF1478846058.8163071
aF1478846119.1396339
aF1478846182.505321
aF1478846242.8103509
aF1478846303.0406821
aF1478846363.5611911
aF1478846424.6115961
aF1478846484.965445
aF1478846545.192219
aF1478846606.186687
aF1478846676.526643
aF1478846736.9307699
aF1478846797.2257891
aF1478846857.6134479
aF1478846917.820806
aF1478846978.0799079
aF1478847038.2887061
aF1478847098.5037329
aF1478847158.803148
aF1478847219.120785
aF1478847279.4158609
aF1478847339.64342
aF1478847399.9177079
aF1478847460.133182
aF1478847520.4197979
aF1478847580.699604
aF1478847660.747246
aF1478847720.883568
aF1478847786.9018331
aF1478847847.1869371
aF1478847907.546165
aF1478847968.3704431
aF1478848033.068157
aF1478848105.476743
aF1478848165.5041339
aF1478848228.5555201
aF1478848288.863641
aF1478848349.0937591
aF1478848409.383076
aF1478848469.7514601
aF1478848530.033458
aF1478848590.3291249
aF1478848650.5892119
aF1478848710.881165
aF1478848771.1684451
aF1478848831.464855
aF1478848891.7268381
aF1478848951.972019
aF1478849012.2586181
aF1478849072.48435
aF1478849132.737967
aF1478849193.361361
aF1478849254.2239101
aI60
tRp52
sg16
I60
sg17
g13
((lp53
I1
aI16
aI1
aI1
aI24
aI61
aI42
aI1
aI1
aI1
aI1
aI1
aI61
aI60
aI15
aI17
aI1
aI1
aI1
aI1
aI1
aI33
aI1
aI1
aI1
aI1
aI1
aI1
aI1
aI1
aI2
aI60
aI51
aI1
aI1
aI61
aI59
aI19
aI60
aI59
aI1
aI1
aI1
aI1
aI17
aI1
aI1
aI1
aI1
aI1
aI1
aI1
aI1
aI1
aI60
aI61
aI61
aI60
aI60
tRp54
sg20
I8
sg21
I60
sg22
F1478849314.8076711
sbs(Vtmall_dangdang
p55
g47
tp56
g5
(g6
g7
NtRp57
(dp58
g10
F1478802237.196378
sg11
I60
sg12
g13
((lp59
F1478845745.2055881
aF1478845806.60414
aF1478845886.3020091
aF1478845966.6279581
aF1478846046.6037741
aF1478846106.879107
aF1478846166.8897741
aF1478846247.7421451
aF1478846307.8348291
aF1478846387.147639
aI60
tRp60
sg16
I60
sg17
g13
((lp61
I3
aI4
aI4
aI4
aI3
aI3
aI4
aI3
aI4
aI2
aI60
tRp62
sg20
I0
sg21
I60
sg22
Nsbs(Vtmall_seckill
S'retry'
p63
tp64
g5
(g6
g7
NtRp65
(dp66
g10
F1478848062.6128249
sg11
F20.980313567320504
sg12
g13
((lp67
F1478848062.6128249
aI60
tRp68
sg16
I60
sg17
g13
((lp69
I2
aI60
tRp70
sg20
I1
sg21
I60
sg22
F1478849302.8929801
sbs(Vtmall_seckill
g47
tp71
g5
(g6
g7
NtRp72
(dp73
g10
F1478831114.240067
sg11
I60
sg12
g13
((lp74
F1478845803.5755
aF1478845979.8403909
aF1478846045.680984
aF1478846404.1562929
aF1478846465.0861869
aF1478846646.964184
aF1478847004.59251
aF1478847248.4217279
aF1478847600.5806141
aF1478847849.5048549
aF1478847910.710865
aF1478848019.1942019
aF1478848080.860266
aF1478848141.1017089
aF1478848450.8628161
aF1478848653.372185
aF1478849053.1667321
aF1478849113.416297
aF1478849253.6046131
aI60
tRp75
sg16
I60
sg17
g13
((lp76
I11
aI29
aI25
aI60
aI61
aI14
aI22
aI9
aI58
aI62
aI25
aI60
aI59
aI18
aI32
aI2
aI61
aI36
aI59
aI60
tRp77
sg20
I15
sg21
I60
sg22
F1478849313.7875991
sbs.