(dp1
(Vtmall_seckill
S'retry'
p2
tp3
ccopy_reg
_reconstructor
p4
(cpyspider.libs.counter
TimebaseAverageWindowCounter
p5
c__builtin__
object
p6
NtRp7
(dp8
S'_first_data_time'
p9
F1478577826.100179
sS'window_size'
p10
I60
sS'times'
p11
ccollections
deque
p12
((lp13
F1478593592.2231569
aF1478593675.190711
aF1478593752.49613
aF1478593834.417623
aF1478593917.6190441
aF1478594008.257951
aF1478594176.6620131
aF1478594258.6371081
aF1478594333.5587721
aF1478594404.0261049
aF1478594464.909097
aF1478594525.877634
aF1478594596.81617
aF1478594657.471189
aF1478594718.3158109
aI60
tRp14
sS'window_interval'
p15
I60
sS'values'
p16
g12
((lp17
I1
aI1
aI8
aI4
aI6
aI3
aI4
aI6
aI3
aI4
aI2
aI8
aI4
aI1
aI4
aI60
tRp18
sS'cache_value'
p19
I0
sS'max_window_size'
p20
I60
sS'cache_start'
p21
Nsbs(Vtmall_url_shop
p22
S'success'
p23
tp24
g4
(g5
g6
NtRp25
(dp26
g9
F1478595849.7155471
sg10
F21.258443633715313
sg11
g12
((lp27
F1478595849.7155471
aF1478595910.848007
aF1478595974.7778821
aF1478596035.7952869
aF1478596115.9046569
aF1478596183.9369421
aF1478596244.2179141
aF1478596306.275908
aF1478596374.1455071
aF1478596434.8251691
aF1478596496.2445879
aF1478596557.4077051
aF1478596618.159375
aF1478596761.9402151
aF1478596822.9292419
aF1478596883.1171241
aF1478596949.7036331
aF1478597024.2359231
aF1478597085.2934189
aI60
tRp28
sg15
I60
sg16
g12
((lp29
I11
aI12
aI13
aI7
aI9
aI3
aI16
aI8
aI9
aI9
aI7
aI8
aI9
aI6
aI13
aI12
aI12
aI12
aI11
aI60
tRp30
sg19
I2
sg20
I60
sg21
F1478597147.146394
sbs(Vtmall_url_shop
p31
g2
tp32
g4
(g5
g6
NtRp33
(dp34
g9
F1478596079.0644269
sg10
F17.435961902141571
sg11
g12
((lp35
F1478596079.0644269
aF1478596166.479759
aF1478596356.7790899
aF1478596431.5623069
aF1478596497.170543
aF1478596575.3554909
aF1478596647.096292
aF1478596710.988461
aF1478596781.415997
aI60
tRp36
sg15
I60
sg16
g12
((lp37
I6
aI12
aI1
aI3
aI2
aI4
aI3
aI9
aI23
aI60
tRp38
sg19
I1
sg20
I60
sg21
F1478597065.9139149
sbs(Vtmall_url_shop
p39
S'pending'
p40
tp41
g4
(g5
g6
NtRp42
(dp43
g9
F1478595850.036041
sg10
F21.253101865450542
sg11
g12
((lp44
F1478595850.036041
aF1478596443.327625
aI60
tRp45
sg15
I60
sg16
g12
((lp46
I100
aI96
aI60
tRp47
sg19
I90
sg20
I60
sg21
F1478597115.9965489
sbs(Vtmall_seckill
g40
tp48
g4
(g5
g6
NtRp49
(dp50
g9
F1478577806.6033151
sg10
I60
sg11
g12
((lp51
F1478593563.7806461
aF1478593646.4045091
aF1478593730.4290509
aF1478593791.9850719
aF1478593880.379905
aF1478593955.0103929
aF1478594024.3857551
aF1478594085.8430059
aF1478594156.804625
aF1478594224.4514091
aF1478594289.037951
aF1478594352.528244
aF1478594423.0725169
aF1478594493.4141459
aF1478594565.493959
aF1478594632.3083601
aF1478594704.539989
aF1478594764.6258559
aI60
tRp52
sg15
I60
sg16
g12
((lp53
I14
aI12
aI5
aI15
aI19
aI3
aI15
aI4
aI21
aI8
aI6
aI12
aI10
aI18
aI4
aI16
aI11
aI4
aI60
tRp54
sg19
I0
sg20
I60
sg21
Nsbs(Vtmall_seckill
g23
tp55
g4
(g5
g6
NtRp56
(dp57
g9
F1478577806.5977149
sg10
I60
sg11
g12
((lp58
F1478593571.6001971
aF1478593633.9746161
aF1478593696.582943
aF1478593771.951118
aF1478593833.597878
aF1478593899.6995201
aF1478593964.434449
aF1478594029.9658301
aF1478594090.2160499
aF1478594156.780134
aF1478594224.4439189
aF1478594289.0225129
aF1478594352.517287
aF1478594423.0662291
aF1478594493.3927829
aF1478594565.482676
aF1478594632.2942629
aF1478594693.75038
aF1478594764.2149379
aI60
tRp59
sg15
I60
sg16
g12
((lp60
I14
aI11
aI11
aI6
aI9
aI9
aI10
aI12
aI9
aI13
aI10
aI7
aI11
aI9
aI8
aI10
aI10
aI9
aI6
aI60
tRp61
sg19
I0
sg20
I60
sg21
Nsbs.