(dp1
(Vtmall_shop
p2
S'pending'
p3
tp4
ccopy_reg
_reconstructor
p5
(cpyspider.libs.counter
TotalCounter
p6
c__builtin__
object
p7
NtRp8
(dp9
S'cnt'
p10
I101
sbs(Vtmall_seckill
S'success'
tp11
g5
(g6
g7
NtRp12
(dp13
g10
I280
sbs(Vtmall_url_shop
S'pending'
tp14
g5
(g6
g7
NtRp15
(dp16
g10
I9
sbs(Vtmall_seckill
g3
tp17
g5
(g6
g7
NtRp18
(dp19
g10
I125
sbs(Vtmall_shop
p20
S'success'
p21
tp22
g5
(g6
g7
NtRp23
(dp24
g10
I1
sbs(Vtmall_url_shop
S'success'
tp25
g5
(g6
g7
NtRp26
(dp27
g10
I2294
sbs.