(dp1
(S'tmall_dangdang'
p2
S'pending'
p3
tp4
ccopy_reg
_reconstructor
p5
(cpyspider.libs.counter
TimebaseAverageWindowCounter
p6
c__builtin__
object
p7
NtRp8
(dp9
S'_first_data_time'
p10
F1478802236.7071919
sS'window_size'
p11
F322.8102352437046
sS'times'
p12
ccollections
deque
p13
((lp14
F1478802236.7071919
aF1478802390.265491
aF1478802541.1531291
aF1478802729.0817561
aF1478803058.2089319
aF1478803416.472332
aF1478803611.780232
aF1478803961.9268551
aF1478804121.6848049
aF1478804283.5691581
aF1478804442.425226
aF1478804602.7555361
aF1478804763.6038301
aF1478804924.445786
aF1478805086.027281
aF1478805379.1735749
aF1478805536.170948
aF1478805697.1740451
aF1478805857.1393859
aF1478806017.624903
aF1478806177.8324449
aF1478806338.4288549
aF1478806499.1184411
aF1478806662.0319021
aF1478806821.295208
aF1478806981.6867959
aF1478807141.2484989
aF1478807301.6782739
aF1478807462.236903
aF1478807622.848947
aF1478807784.3914239
aF1478807943.844137
aF1478808106.67924
aF1478808265.3949189
aF1478808426.2648129
aF1478808586.0243399
aF1478808731.41205
aF1478808886.847667
aF1478809048.299937
aF1478809207.746779
aF1478809369.237916
aF1478809528.8773201
aF1478809689.2374671
aF1478809850.051501
aF1478810011.155385
aF1478810170.9234791
aF1478810331.4728341
aF1478810492.073489
aF1478810652.675817
aF1478810813.20311
aF1478810973.5940299
aF1478811133.861973
aF1478811294.4709091
aF1478811454.9131451
aF1478811615.6403821
aF1478811776.2090099
aF1478811936.994971
aF1478812097.667645
aF1478812257.7140679
aF1478812418.123584
aF1478812578.7717149
aF1478812739.323662
aF1478812900.7194819
aF1478813066.660327
aF1478813229.53864
aF1478813381.536339
aF1478813541.747463
aF1478813702.7772031
aF1478813862.853837
aF1478814023.445498
aF1478814184.023792
aF1478814344.5657799
aF1478814505.7946889
aF1478814666.3063569
aF1478814826.4048381
aF1478814987.3898971
aF1478815147.5612481
aF1478815307.73419
aF1478815468.4169641
aF1478815628.554419
aF1478815790.007333
aF1478815950.1934471
aF1478816110.5517371
aF1478816271.7964749
aF1478816432.270879
aF1478816593.420682
aF1478816753.4765279
aF1478816913.9674301
aF1478817075.1475761
aF1478817235.2165899
aF1478817396.584594
aF1478817556.6159689
aF1478817717.5974669
aF1478817877.7888989
aF1478818038.041518
aF1478818198.895256
aF1478818359.21999
aF1478818519.5793729
aF1478818681.1442089
aF1478818840.8442521
aF1478819000.8702519
aF1478819164.693538
aF1478819322.04703
aF1478819482.459002
aF1478819629.2683389
aF1478819784.4241631
aF1478819944.0354421
aF1478820106.1291201
aF1478820265.883208
aF1478820425.4702599
aF1478820586.438494
aF1478820747.1255701
aF1478820907.3442791
aF1478821067.9076231
aF1478821228.3698909
aF1478821389.308259
aF1478821550.026166
aF1478821710.470185
aF1478821870.9658821
aF1478822031.3094449
aF1478822192.1068771
aF1478822353.6929879
aF1478822513.2243969
aF1478822674.906873
aF1478822834.1584139
aF1478822994.6225491
aF1478823157.2836781
aF1478823317.0311739
aF1478823476.31565
aF1478823637.088402
aF1478823798.82358
aF1478823958.561166
aF1478824120.8110549
aF1478824279.57443
aF1478824431.1406281
aF1478824590.3348711
aF1478824750.7582791
aF1478824912.7031691
aF1478825071.354362
aF1478825232.3241351
aF1478825392.2649209
aF1478825553.122575
aF1478825714.577606
aF1478825873.971519
aF1478826033.705617
aF1478826194.448842
aF1478826354.368685
aF1478826515.137202
aF1478826674.5151069
aF1478826822.977859
aF1478826982.710371
aF1478827142.9763861
aF1478827303.3901169
aF1478827465.202997
aF1478827624.4463639
aF1478827785.4911671
aF1478827949.9093909
aF1478828105.3239701
aF1478828249.5503199
aF1478828406.1756301
aF1478828566.3168039
aF1478828726.6796081
aF1478828887.102421
aF1478829048.4519341
aF1478829207.9036701
aF1478829368.1918361
aF1478829529.3232529
aF1478829689.1865959
aF1478829850.577184
aF1478830009.862787
aF1478830170.184906
aF1478830422.0204079
aF1478830583.3080549
aF1478830743.212086
aF1478830903.1891999
aF1478831064.253299
aF1478831224.6505251
aF1478831385.12797
aF1478831545.56426
aF1478831705.509656
aF1478831865.726373
aF1478832026.4416039
aF1478832187.589222
aF1478832348.259397
aF1478832507.3563011
aF1478832667.792455
aF1478832830.032901
aF1478832988.566287
aF1478833149.254565
aF1478833310.222084
aF1478833469.5233581
aF1478833629.946368
aF1478833797.0692599
aF1478834006.2164941
aF1478834165.1820121
aF1478834325.1728439
aF1478834485.6679051
aF1478834646.7910039
aF1478834806.399549
aF1478834966.672143
aF1478835127.0887539
aF1478835287.633878
aF1478835447.964978
aF1478835609.1396041
aF1478835770.158534
aF1478835929.7542181
aF1478836089.749691
aF1478836250.118607
aF1478836410.6093359
aF1478836570.936811
aF1478836732.153024
aF1478836891.8141749
aF1478837053.7586169
aF1478837212.6083701
aF1478837373.4350281
aF1478837534.2438691
aF1478837694.7556829
aF1478837854.7270999
aF1478838015.150187
aF1478838176.1174519
aF1478838336.348145
aF1478838496.669554
aF1478838657.2962511
aF1478838818.4855349
aF1478838978.0596349
aF1478839138.8794451
aF1478839299.2555971
aF1478839459.823271
aF1478839621.6660681
aF1478839780.4018209
aF1478839940.826669
aF1478840102.762274
aF1478840261.9863291
aF1478840423.164171
aF1478840583.7090759
aF1478840743.782907
aF1478840910.6572599
aF1478841070.9372561
aF1478841221.3775351
aF1478841381.4883981
aF1478841542.3728969
aF1478841702.917474
aF1478841863.0361381
aF1478842023.85829
aF1478842183.2394819
aF1478842345.210789
aF1478842505.625154
aF1478842664.870157
aF1478842825.444526
aF1478842985.7403619
aF1478843146.5436499
aF1478843307.3522451
aF1478843466.9537599
aF1478843628.1778679
aF1478843789.0219369
aF1478843948.2715399
aF1478844109.53861
aF1478844269.8024759
aF1478844430.2708039
aF1478844590.0011611
aF1478844823.7054679
aF1478844983.1973131
aF1478845143.4617209
aF1478845303.8273649
aF1478845465.8936751
aF1478845625.5625319
aF1478845785.2555001
aF1478845945.9541049
aF1478846106.8827951
aF1478846266.9805629
aI600
tRp15
sS'window_interval'
p16
I144
sS'values'
p17
g13
((lp18
I8
aI1
aI3
aI3
aI4
aI6
aI5
aI8
aI8
aI8
aI8
aI8
aI8
aI8
aI2
aI5
aI8
aI8
aI8
aI8
aI8
aI8
aI8
aI8
aI8
aI8
aI8
aI8
aI8
aI8
aI8
aI8
aI8
aI8
aI8
aI7
aI8
aI8
aI8
aI8
aI8
aI8
aI8
aI8
aI8
aI8
aI8
aI8
aI8
aI8
aI8
aI8
aI8
aI8
aI8
aI8
aI8
aI8
aI8
aI8
aI8
aI8
aI8
aI8
aI8
aI8
aI8
aI8
aI8
aI8
aI8
aI8
aI8
aI8
aI8
aI8
aI8
aI8
aI8
aI8
aI8
aI8
aI8
aI8
aI8
aI8
aI8
aI8
aI8
aI8
aI8
aI8
aI8
aI8
aI8
aI8
aI8
aI8
aI8
aI8
aI8
aI8
aI8
aI7
aI8
aI8
aI8
aI8
aI8
aI8
aI8
aI8
aI8
aI8
aI8
aI8
aI8
aI8
aI8
aI8
aI8
aI8
aI8
aI8
aI8
aI8
aI8
aI8
aI8
aI8
aI8
aI8
aI8
aI7
aI8
aI8
aI8
aI8
aI8
aI8
aI8
aI8
aI8
aI8
aI8
aI8
aI8
aI8
aI3
aI8
aI8
aI8
aI8
aI8
aI8
aI8
aI8
aI7
aI8
aI8
aI8
aI8
aI8
aI8
aI8
aI8
aI8
aI8
aI8
aI8
aI8
aI8
aI8
aI8
aI8
aI8
aI8
aI8
aI8
aI8
aI8
aI8
aI8
aI8
aI8
aI8
aI8
aI8
aI8
aI8
aI8
aI8
aI7
aI8
aI8
aI8
aI8
aI8
aI8
aI8
aI8
aI8
aI8
aI8
aI8
aI8
aI8
aI8
aI8
aI8
aI8
aI8
aI8
aI8
aI8
aI8
aI8
aI8
aI8
aI8
aI8
aI8
aI8
aI8
aI8
aI8
aI8
aI8
aI8
aI8
aI8
aI8
aI8
aI8
aI8
aI5
aI9
aI6
aI8
aI8
aI8
aI8
aI8
aI8
aI8
aI8
aI8
aI8
aI8
aI8
aI8
aI8
aI8
aI8
aI8
aI8
aI8
aI8
aI8
aI7
aI9
aI8
aI8
aI8
aI8
aI8
aI8
aI8
aI8
aI8
aI600
tRp19
sS'cache_value'
p20
I0
sS'max_window_size'
p21
I600
sS'cache_start'
p22
Nsbs(S'tmall_shops'
g3
tp23
g5
(g6
g7
NtRp24
(dp25
g10
F1478756319.957027
sg11
I600
sg12
g13
((lp26
F1478764423.140245
aF1478764603.1894169
aF1478764748.9595129
aF1478764959.6798971
aF1478765107.4869161
aF1478765253.585664
aF1478765399.3893361
aF1478765545.4307261
aF1478765691.3496499
aF1478765837.1848831
aF1478765983.0171831
aF1478766128.948693
aF1478766275.396919
aF1478766421.2099969
aF1478766567.1234419
aF1478766713.3016281
aF1478766861.8446169
aF1478767008.6757891
aF1478767155.9162259
aF1478767301.4568601
aF1478767447.4203539
aF1478767593.5054791
aF1478767739.099452
aF1478767884.8258531
aF1478768031.0248859
aF1478768243.0963221
aF1478768400.4494021
aF1478768581.2238281
aF1478768762.9232891
aF1478768944.703018
aF1478769125.475637
aF1478769306.2686141
aF1478769487.0340371
aF1478769667.7474699
aF1478769848.5588551
aF1478770029.291064
aF1478770210.0277669
aF1478770390.7301049
aF1478770571.542474
aF1478770752.3098471
aF1478770933.057116
aF1478771113.7932129
aF1478771294.653666
aF1478771475.4879351
aF1478771656.3801539
aF1478771837.12677
aF1478772002.286588
aF1478772183.0414319
aF1478772363.893352
aI600
tRp27
sg16
I144
sg17
g13
((lp28
I138
aI68
aI101
aI70
aI69
aI70
aI70
aI62
aI69
aI69
aI70
aI70
aI70
aI70
aI70
aI61
aI71
aI71
aI70
aI70
aI70
aI61
aI64
aI57
aI43
aI29
aI13
aI16
aI15
aI15
aI15
aI17
aI15
aI21
aI15
aI15
aI15
aI15
aI15
aI16
aI15
aI15
aI15
aI15
aI15
aI15
aI15
aI15
aI15
aI600
tRp29
sg20
I0
sg21
I600
sg22
Nsbs(Vtmall_index
p30
S'failed'
p31
tp32
g5
(g6
g7
NtRp33
(dp34
g10
F1478829145.5197959
sg11
F135.94347939723067
sg12
g13
((lp35
F1478829145.5197959
aF1478829545.4201369
aF1478829815.029614
aF1478830188.3103311
aI600
tRp36
sg16
I144
sg17
g13
((lp37
I1
aI1
aI1
aI1
aI600
tRp38
sg20
I0
sg21
I600
sg22
Nsbs(Vtmall_shop
S'retry'
p39
tp40
g5
(g6
g7
NtRp41
(dp42
g10
F1478749767.421829
sg11
I600
sg12
g13
((lp43
F1478762445.8328021
aF1478764349.588609
aI600
tRp44
sg16
I144
sg17
g13
((lp45
I22
aI4
aI600
tRp46
sg20
I0
sg21
I600
sg22
Nsbs(Vtmall_shops
p47
S'success'
p48
tp49
g5
(g6
g7
NtRp50
(dp51
g10
F1478756320.3666241
sg11
I600
sg12
g13
((lp52
F1478764426.883105
aF1478764571.885016
aF1478764718.9271581
aF1478764864.818378
aF1478765011.4707611
aF1478765156.216799
aF1478765300.3589809
aF1478765445.1625431
aF1478765590.2777851
aF1478765735.2064691
aF1478765881.3763289
aF1478766026.3448429
aF1478766170.726625
aF1478766314.762255
aF1478766459.4605081
aF1478766603.723419
aF1478766749.012645
aF1478766893.3170171
aF1478767037.5870111
aF1478767182.72527
aF1478767327.3453021
aF1478767471.918184
aF1478767616.456471
aF1478767760.5610349
aF1478767905.8907189
aF1478768052.5383821
aF1478768199.0034349
aF1478768361.288924
aF1478768512.6999769
aF1478768658.3378749
aF1478768806.8614349
aF1478768956.902657
aF1478769117.0442729
aF1478769278.705941
aF1478769426.755825
aF1478769581.2187879
aF1478769727.971477
aF1478769883.575211
aF1478770029.280746
aF1478770188.0140231
aF1478770335.1888499
aF1478770486.2333591
aF1478770631.7937319
aF1478770787.3231249
aF1478770933.0514231
aF1478771086.256243
aF1478771234.3765299
aF1478771388.8545179
aF1478771535.774416
aF1478771690.1061411
aF1478771837.1190059
aF1478771992.91857
aF1478772156.930665
aF1478772303.627512
aF1478772464.1871049
aI600
tRp53
sg16
I144
sg17
g13
((lp54
I60
aI72
aI72
aI72
aI70
aI71
aI72
aI63
aI71
aI71
aI72
aI70
aI72
aI71
aI71
aI63
aI71
aI71
aI72
aI71
aI71
aI65
aI69
aI66
aI65
aI64
aI54
aI19
aI15
aI15
aI15
aI16
aI16
aI17
aI15
aI15
aI21
aI15
aI15
aI16
aI14
aI15
aI15
aI16
aI15
aI15
aI15
aI15
aI15
aI15
aI15
aI18
aI15
aI15
aI6
aI600
tRp55
sg20
I0
sg21
I600
sg22
Nsbs(S'tmall_seckill'
S'pending'
tp56
g5
(g6
g7
NtRp57
(dp58
g10
F1478517120.347029
sg11
I600
sg12
g13
((lp59
F1478830828.5632081
aF1478831114.2430401
aF1478831261.315325
aF1478831412.97721
aF1478831569.1830649
aF1478832042.7470031
aF1478832189.427984
aF1478832818.8872869
aF1478833056.104584
aF1478833201.026825
aF1478833369.446655
aF1478833774.853754
aF1478834020.714257
aF1478834621.3123691
aF1478834886.2262051
aF1478835127.308692
aF1478835603.4746349
aF1478835765.8545139
aF1478836424.204982
aF1478836717.9491611
aF1478836928.702282
aF1478837340.5601921
aF1478837494.710742
aF1478837670.0977001
aF1478838228.1880929
aF1478838524.266324
aF1478838769.23068
aF1478839167.9408419
aF1478839313.92717
aF1478840031.8376851
aF1478840369.2139151
aF1478840613.579365
aF1478841234.9503219
aF1478841606.8326311
aF1478841836.485292
aF1478842286.601706
aF1478842437.8676269
aF1478843038.9054739
aF1478843488.211133
aF1478843640.0349381
aF1478844001.1517551
aF1478844176.7612829
aF1478844323.940897
aF1478844601.8458271
aF1478844843.6523011
aF1478845202.6844399
aF1478845444.3340449
aF1478845803.5902541
aF1478845979.127986
aF1478846404.164078
aF1478846646.9741571
aF1478847004.602206
aF1478847248.425766
aF1478847600.591166
aF1478847849.511435
aF1478848018.8978231
aF1478848450.866971
aI600
tRp60
sg16
I144
sg17
g13
((lp61
I14
aI60
aI32
aI13
aI12
aI29
aI26
aI4
aI46
aI25
aI19
aI79
aI67
aI12
aI24
aI47
aI109
aI49
aI41
aI21
aI38
aI56
aI45
aI33
aI12
aI48
aI55
aI67
aI53
aI61
aI36
aI54
aI84
aI2
aI42
aI104
aI50
aI30
aI51
aI5
aI41
aI157
aI8
aI1
aI29
aI1
aI68
aI10
aI53
aI120
aI13
aI21
aI8
aI57
aI86
aI136
aI31
aI600
tRp62
sg20
I1
sg21
I600
sg22
F1478848653.4283731
sbs(S'tmall_item'
g3
tp63
g5
(g6
g7
NtRp64
(dp65
g10
F1478800281.44436
sg11
F336.38845240904226
sg12
g13
((lp66
F1478800281.44436
aF1478800490.4980061
aF1478800689.3327899
aF1478800872.924468
aF1478801071.2933869
aF1478801271.1932671
aF1478801470.4194069
aF1478801668.9608779
aF1478801867.756402
aF1478802066.7003851
aF1478802265.1303811
aF1478802464.4237909
aF1478802666.525784
aF1478802876.787107
aF1478803092.8011611
aF1478803296.7211521
aF1478803501.5061669
aF1478803710.982702
aF1478803858.5313239
aF1478804074.928771
aF1478804292.6080019
aF1478804476.586894
aF1478804687.9952199
aF1478804832.602669
aF1478805137.394563
aF1478805334.1061821
aF1478805532.6397591
aF1478805731.393538
aF1478805931.2362461
aF1478806130.343612
aF1478806328.4039431
aF1478806526.327755
aF1478806724.89798
aF1478806923.00968
aF1478807121.613004
aF1478807320.103931
aF1478807518.254673
aF1478807717.405098
aF1478807915.991997
aF1478808074.8850901
aF1478808272.0763731
aF1478808471.226814
aF1478808670.187299
aF1478808867.8222849
aF1478809071.456008
aF1478809270.2682569
aF1478809468.873848
aF1478809666.9489019
aF1478809865.534791
aF1478810064.177881
aF1478810262.487587
aF1478810460.9056599
aF1478810659.1676879
aF1478810857.616627
aF1478811056.3845971
aF1478811255.3875861
aF1478811453.4870081
aF1478811607.126894
aF1478811806.459636
aF1478812007.1768999
aF1478812204.977566
aF1478812403.6341319
aF1478812602.682935
aF1478812801.0114939
aF1478812999.438035
aF1478813198.776691
aF1478813396.8630581
aF1478813595.8328569
aF1478813794.471988
aF1478813992.7711699
aF1478814191.328109
aF1478814390.166476
aF1478814588.1472631
aF1478814786.4831259
aF1478814984.660085
aF1478815182.8229761
aF1478815340.8950281
aF1478815539.554765
aF1478815737.928596
aF1478815939.142767
aF1478816137.069524
aF1478816336.22369
aF1478816535.3214879
aF1478816736.6614079
aF1478816934.8275199
aF1478817134.5141821
aF1478817334.2022359
aF1478817533.288784
aF1478817732.5976329
aF1478817933.1556051
aF1478818132.178174
aF1478818331.12673
aF1478818530.1138959
aF1478818730.11906
aF1478818877.8642709
aF1478819076.38832
aF1478819275.1113939
aF1478819473.8410001
aF1478819672.9857471
aF1478819871.784477
aF1478820070.375953
aF1478820269.83147
aF1478820468.2160659
aF1478820668.4197941
aF1478820868.361939
aF1478821067.41611
aF1478821266.9628351
aF1478821466.0146899
aF1478821664.3110671
aF1478821863.0871329
aF1478822063.697201
aF1478822263.0710509
aF1478822410.606379
aF1478822611.6405079
aF1478822811.71296
aF1478823011.757812
aF1478823212.5325029
aF1478823414.7415111
aF1478823614.8785231
aF1478823816.5783789
aF1478824018.2086999
aF1478824218.856673
aI600
tRp67
sg16
I144
sg17
g13
((lp68
I238
aI178
aI153
aI174
aI174
aI174
aI153
aI114
aI99
aI83
aI72
aI57
aI30
aI26
aI24
aI20
aI18
aI10
aI10
aI12
aI13
aI10
aI3
aI4
aI127
aI180
aI180
aI181
aI185
aI181
aI178
aI180
aI180
aI180
aI182
aI180
aI180
aI180
aI144
aI180
aI183
aI181
aI181
aI188
aI184
aI180
aI179
aI180
aI180
aI180
aI180
aI180
aI182
aI180
aI182
aI181
aI181
aI138
aI182
aI180
aI180
aI180
aI180
aI180
aI180
aI179
aI180
aI181
aI180
aI179
aI180
aI180
aI180
aI180
aI180
aI143
aI175
aI169
aI171
aI166
aI168
aI170
aI170
aI168
aI168
aI168
aI168
aI168
aI172
aI166
aI168
aI168
aI169
aI135
aI154
aI161
aI164
aI165
aI162
aI162
aI163
aI162
aI162
aI164
aI161
aI161
aI161
aI163
aI160
aI164
aI161
aI165
aI120
aI157
aI158
aI159
aI159
aI164
aI162
aI157
aI158
aI158
aI600
tRp69
sg20
I0
sg21
I600
sg22
Nsbs(S'tmall_shop'
g3
tp70
g5
(g6
g7
NtRp71
(dp72
g10
F1478750225.1819839
sg11
I600
sg12
g13
((lp73
F1478762467.4622011
aF1478764348.6715159
aI600
tRp74
sg16
I144
sg17
g13
((lp75
I7
aI101
aI600
tRp76
sg20
I0
sg21
I600
sg22
Nsbs(S'tmall_campaign'
S'pending'
tp77
g5
(g6
g7
NtRp78
(dp79
g10
F1478625804.6128409
sg11
I600
sg12
g13
((lp80
F1478764007.155952
aF1478764429.0114651
aF1478772505.7364709
aF1478772652.251899
aF1478772799.211683
aF1478772944.9841371
aF1478773090.500355
aF1478773238.443404
aF1478773386.291503
aF1478773533.52789
aF1478773682.2451279
aF1478773833.7402279
aF1478773979.1821029
aF1478774128.768048
aF1478774277.5204971
aF1478774425.925009
aF1478774571.98054
aF1478774717.8098061
aF1478774863.66781
aF1478775009.2299349
aF1478775155.350559
aF1478775301.0805459
aF1478775447.0103791
aF1478775592.765449
aF1478775745.614563
aF1478775891.282191
aF1478776037.9491229
aF1478776186.166353
aF1478776334.9642
aF1478778468.3787639
aF1478778614.476126
aF1478778762.9374471
aF1478778910.5559709
aF1478779063.250881
aF1478779209.193959
aF1478779354.4904549
aF1478779500.7232411
aF1478779646.7438719
aF1478779793.549242
aF1478779940.4930251
aF1478780086.498646
aF1478780232.277936
aF1478780384.068027
aF1478780541.39714
aF1478781181.636622
aF1478781546.870522
aF1478781838.5436361
aF1478782877.7296929
aF1478783024.143918
aF1478783177.942127
aF1478783391.922303
aF1478783757.481514
aF1478783903.642278
aF1478784050.5765071
aF1478785675.640434
aF1478787175.0624411
aF1478789319.679888
aF1478789510.1398239
aF1478789658.3790939
aF1478789804.2987781
aF1478789952.1290131
aF1478790159.7345791
aF1478790306.6281099
aF1478790454.5632479
aF1478790600.2975659
aF1478790745.9536331
aF1478790892.0979669
aF1478791037.8229821
aF1478791185.4732411
aF1478791333.593076
aF1478791481.0180991
aF1478791628.9201369
aF1478791782.811626
aF1478791932.623564
aF1478792081.692616
aF1478792229.119396
aF1478792374.3763421
aF1478792520.562016
aF1478792667.3378739
aF1478792814.3674381
aF1478792960.459662
aF1478793106.477953
aF1478793253.510879
aF1478793401.6950581
aF1478793547.0682409
aF1478793760.0163169
aF1478793907.1592469
aF1478794056.3261089
aF1478794203.4012611
aF1478794350.6624789
aF1478794496.9424269
aF1478794642.5616391
aF1478794790.413384
aF1478794936.374382
aF1478795084.3044651
aF1478795231.673301
aF1478795377.14591
aF1478795523.7243669
aF1478795670.7020559
aF1478795816.452543
aF1478795962.2257249
aF1478796109.2445741
aF1478796255.619009
aF1478796401.83132
aF1478796547.6573751
aF1478796699.490365
aF1478796845.912807
aF1478796995.0334971
aF1478797140.846642
aF1478797286.7701819
aF1478797432.755266
aF1478797578.5081789
aF1478797724.370928
aF1478797870.38761
aF1478798016.3343489
aF1478798162.3395331
aF1478798310.2193191
aF1478798456.5327849
aF1478798609.5470991
aF1478798756.5396459
aF1478798902.5221479
aF1478799048.673912
aF1478799195.9310911
aF1478799345.351311
aF1478799492.671592
aF1478799638.5701799
aF1478799784.6188719
aF1478799930.720567
aF1478800076.5205929
aF1478800222.4435871
aF1478800405.6756029
aF1478800588.206671
aF1478800771.220917
aF1478800954.3720679
aF1478801137.0479269
aF1478801319.9465189
aF1478801502.8858399
aF1478801685.5209861
aF1478801868.4821761
aF1478802051.287524
aF1478802234.167592
aF1478802416.3694479
aF1478802598.978796
aF1478802781.1474111
aF1478802963.800698
aF1478803146.5070579
aF1478803329.234359
aF1478803512.244606
aF1478803694.926919
aF1478803877.987848
aF1478804060.857497
aF1478804243.6826739
aF1478804426.739089
aF1478804609.371402
aF1478804791.8528531
aF1478804974.1423759
aF1478805156.4970541
aF1478805339.3085909
aF1478805521.7112739
aF1478805703.9996369
aF1478805887.5058551
aF1478806070.2470231
aF1478806252.7732799
aF1478806435.6531999
aF1478806618.701622
aF1478806802.0248351
aF1478806984.432081
aF1478807167.3692181
aF1478807350.528688
aF1478807533.439059
aF1478807716.407546
aF1478807898.6325691
aF1478808081.1981671
aF1478808263.791178
aF1478808446.529556
aF1478808629.165308
aF1478808811.783742
aF1478808994.879209
aF1478809177.378413
aF1478809360.229429
aF1478809542.9033189
aF1478809725.553896
aF1478809908.0359621
aF1478810090.4159789
aF1478810272.8365409
aF1478810455.634418
aF1478810638.6691461
aF1478810821.8660779
aF1478811004.395658
aF1478811187.3497031
aF1478811370.1490929
aF1478811553.3329921
aF1478811735.9587891
aF1478811919.3070569
aF1478812102.490268
aF1478812285.200067
aF1478812467.7913361
aF1478812650.47403
aF1478812833.6104021
aF1478813020.419106
aF1478813203.768461
aF1478813391.4531729
aF1478813579.125639
aF1478813761.8281801
aF1478813944.705524
aF1478814133.079762
aF1478814315.717201
aF1478814498.6992099
aF1478814681.5830269
aF1478814864.6429811
aF1478815047.4020309
aF1478815229.764231
aF1478815412.4864841
aF1478815594.810025
aF1478815777.1589949
aF1478815960.0507879
aF1478816153.0067599
aF1478816346.3002989
aF1478816539.3870261
aF1478816732.1937511
aF1478816925.1083519
aF1478817118.14026
aF1478817311.6184759
aF1478817504.2867911
aF1478817697.168433
aF1478817895.1976049
aF1478818088.2089119
aF1478818280.851166
aF1478818474.4442279
aF1478818667.008007
aF1478818861.0324979
aF1478819057.660131
aF1478819250.4723279
aF1478819443.1773839
aF1478819636.182457
aF1478819828.5884869
aF1478820021.280298
aF1478820214.2144639
aF1478820406.775044
aF1478820600.160099
aF1478820792.7076249
aF1478820985.831372
aF1478821179.3616829
aF1478821371.8841131
aF1478821564.5319059
aF1478821757.048106
aF1478821949.7220099
aF1478822142.3274519
aF1478822334.5739729
aF1478822526.9883659
aF1478822719.427433
aF1478822912.6702831
aF1478823105.389524
aF1478823298.0087321
aF1478823490.4758911
aF1478823684.307281
aF1478823877.0307021
aF1478824069.8020799
aF1478824262.257849
aI600
tRp81
sg16
I144
sg17
g13
((lp82
I1
aI5
aI135
aI71
aI70
aI70
aI70
aI71
aI71
aI71
aI72
aI72
aI70
aI72
aI71
aI71
aI70
aI70
aI70
aI70
aI70
aI70
aI70
aI45
aI67
aI70
aI71
aI71
aI70
aI42
aI70
aI72
aI72
aI71
aI70
aI70
aI70
aI70
aI71
aI70
aI70
aI72
aI71
aI35
aI1
aI1
aI1
aI1
aI1
aI3
aI1
aI1
aI39
aI21
aI1
aI1
aI19
aI71
aI71
aI70
aI100
aI71
aI70
aI71
aI70
aI70
aI70
aI70
aI71
aI71
aI71
aI72
aI73
aI72
aI71
aI71
aI70
aI70
aI71
aI70
aI70
aI71
aI70
aI71
aI102
aI70
aI71
aI71
aI74
aI67
aI70
aI71
aI72
aI70
aI71
aI71
aI70
aI69
aI71
aI70
aI68
aI73
aI70
aI70
aI77
aI68
aI70
aI71
aI70
aI66
aI71
aI70
aI70
aI69
aI70
aI70
aI71
aI73
aI71
aI70
aI70
aI70
aI71
aI71
aI71
aI70
aI70
aI70
aI72
aI77
aI34
aI34
aI34
aI34
aI34
aI34
aI34
aI34
aI34
aI34
aI34
aI34
aI34
aI34
aI34
aI34
aI34
aI34
aI34
aI34
aI34
aI34
aI34
aI33
aI34
aI23
aI24
aI34
aI34
aI34
aI34
aI34
aI34
aI34
aI34
aI34
aI34
aI34
aI34
aI34
aI34
aI34
aI34
aI34
aI34
aI34
aI34
aI34
aI34
aI34
aI34
aI34
aI34
aI34
aI34
aI34
aI34
aI34
aI66
aI14
aI25
aI34
aI34
aI34
aI34
aI34
aI34
aI34
aI34
aI35
aI34
aI35
aI35
aI34
aI34
aI35
aI34
aI34
aI34
aI34
aI34
aI34
aI34
aI34
aI48
aI63
aI33
aI36
aI36
aI36
aI36
aI36
aI36
aI36
aI36
aI37
aI36
aI36
aI36
aI36
aI37
aI36
aI36
aI36
aI36
aI36
aI36
aI36
aI36
aI36
aI36
aI36
aI36
aI36
aI36
aI36
aI36
aI36
aI36
aI36
aI36
aI36
aI36
aI36
aI36
aI36
aI36
aI36
aI36
aI600
tRp83
sg20
I0
sg21
I600
sg22
Nsbs(Vtmall_item
g39
tp84
g5
(g6
g7
NtRp85
(dp86
g10
F1478800448.449167
sg11
F335.22869655489922
sg12
g13
((lp87
F1478800448.449167
aF1478800601.926218
aF1478800762.7459569
aF1478800918.444732
aF1478801079.1750519
aF1478801249.723052
aF1478801410.7574589
aF1478801577.170686
aF1478801721.9643769
aF1478801875.3513551
aF1478802020.384855
aF1478802177.6473451
aF1478802322.7439251
aF1478802468.7720051
aF1478802612.8418081
aF1478802757.2161291
aF1478802902.109333
aF1478803047.1602681
aF1478803191.585454
aF1478803336.199367
aF1478803480.769012
aF1478803624.8884339
aF1478803768.930074
aF1478803914.291208
aF1478804058.7156351
aF1478804203.0573909
aF1478804347.803827
aF1478804492.755918
aF1478804636.963985
aF1478804781.5062139
aF1478804925.661262
aF1478805224.6210999
aF1478805378.063453
aF1478805541.6310999
aF1478805710.2240779
aF1478805872.208679
aF1478806041.9830501
aF1478806204.1314311
aF1478806372.5185981
aF1478806533.3088551
aF1478806702.3075609
aF1478806864.637897
aF1478807033.5315161
aF1478807194.5521729
aF1478807364.679908
aF1478807525.134475
aF1478807694.5902891
aF1478807857.1175079
aF1478808017.7833731
aF1478808183.896734
aF1478808345.685097
aF1478808516.5772941
aF1478808677.479331
aF1478808846.2590041
aF1478809012.7495339
aF1478809181.3161311
aF1478809343.3357949
aF1478809513.2949431
aF1478809673.7320721
aF1478809843.6706419
aF1478810005.2794931
aF1478810174.4629819
aF1478810335.5208061
aF1478810505.2473609
aF1478810666.3608201
aF1478810835.1007941
aF1478810997.0859089
aF1478811165.858144
aF1478811328.286618
aF1478811497.264678
aF1478811651.260982
aF1478811813.41906
aF1478811985.5109899
aF1478812145.8657961
aF1478812314.5487709
aF1478812477.3003919
aF1478812647.3248031
aF1478812807.805516
aF1478812978.0707901
aF1478813139.2504959
aF1478813309.2229149
aF1478813469.816467
aF1478813641.602447
aF1478813801.25841
aF1478813972.029587
aF1478814131.5443611
aF1478814302.379179
aF1478814463.027935
aF1478814631.6588321
aF1478814793.356703
aF1478814962.23768
aF1478815123.4396601
aF1478815281.7256701
aF1478815451.323051
aF1478815612.9498279
aF1478815781.3972981
aF1478815945.926173
aF1478816116.5298669
aF1478816276.9640851
aF1478816445.8273239
aF1478816610.4572511
aF1478816781.6726561
aF1478816942.523417
aF1478817112.5272
aF1478817273.7270131
aF1478817445.706506
aF1478817606.3877399
aF1478817776.3919909
aF1478817939.824055
aF1478818109.3338239
aF1478818271.4543779
aF1478818441.8892879
aF1478818603.8986509
aF1478818775.1219771
aF1478818922.456594
aF1478819083.2587121
aF1478819252.39218
aF1478819414.9011321
aF1478819566.1345401
aF1478819716.411098
aF1478819878.8611939
aF1478820047.8051209
aF1478820210.722821
aF1478820379.607491
aF1478820541.6687689
aF1478820715.6268301
aF1478820876.9721651
aF1478821045.6274071
aF1478821207.382977
aF1478821376.933701
aF1478821539.0676401
aF1478821708.7482519
aF1478821870.4611809
aF1478822041.456254
aF1478822205.3598051
aF1478822373.793756
aF1478822522.5196199
aF1478822685.5322001
aF1478822855.9391091
aF1478823019.149116
aF1478823171.8656609
aF1478823325.152025
aF1478823489.862627
aF1478823659.062366
aF1478823823.742794
aF1478823996.841651
aF1478824159.490999
aF1478824330.1199591
aI600
tRp88
sg16
I144
sg17
g13
((lp89
I10
aI20
aI17
aI15
aI15
aI15
aI30
aI55
aI61
aI76
aI77
aI91
aI90
aI106
aI118
aI123
aI122
aI128
aI122
aI123
aI127
aI130
aI130
aI134
aI133
aI132
aI126
aI136
aI133
aI138
aI11
aI9
aI10
aI10
aI10
aI7
aI7
aI10
aI10
aI10
aI10
aI10
aI8
aI10
aI10
aI10
aI10
aI10
aI8
aI8
aI8
aI8
aI8
aI8
aI6
aI10
aI10
aI10
aI10
aI10
aI10
aI10
aI10
aI10
aI8
aI10
aI9
aI9
aI8
aI10
aI10
aI10
aI10
aI10
aI10
aI10
aI10
aI10
aI10
aI10
aI10
aI10
aI8
aI10
aI10
aI10
aI10
aI10
aI10
aI10
aI10
aI10
aI12
aI20
aI18
aI20
aI21
aI20
aI18
aI20
aI20
aI20
aI20
aI20
aI20
aI20
aI20
aI20
aI20
aI20
aI20
aI20
aI20
aI20
aI22
aI23
aI23
aI21
aI21
aI25
aI25
aI25
aI25
aI25
aI25
aI25
aI25
aI25
aI25
aI25
aI25
aI25
aI25
aI25
aI25
aI22
aI26
aI29
aI29
aI28
aI25
aI30
aI28
aI30
aI30
aI30
aI30
aI12
aI600
tRp90
sg20
I0
sg21
I600
sg22
Nsbs(Vtmall_shops
g39
tp91
g5
(g6
g7
NtRp92
(dp93
g10
F1478756502.904376
sg11
I600
sg12
g13
((lp94
F1478764422.827841
aF1478765098.445976
aF1478765530.9372799
aF1478766653.487015
aF1478767591.6623621
aF1478767753.169404
aF1478767901.0361569
aF1478768047.3437321
aF1478768196.346962
aF1478768341.7444279
aF1478768497.6408601
aF1478768647.5732069
aF1478768799.7469101
aF1478768950.196883
aF1478769102.562804
aF1478769248.052923
aF1478769406.021718
aF1478769550.2516799
aF1478769707.5760801
aF1478769852.8345101
aF1478770006.2314911
aF1478770154.750721
aF1478770306.628166
aF1478770455.293632
aF1478770608.769892
aF1478770756.3915839
aF1478770911.5742869
aF1478771055.6069069
aF1478771210.73175
aF1478771358.005511
aF1478771515.899893
aF1478771660.4518781
aF1478771814.9169791
aF1478771961.720278
aF1478772124.8226581
aF1478772282.109663
aF1478772428.1704969
aI600
tRp95
sg16
I144
sg17
g13
((lp96
I5
aI2
aI8
aI9
aI8
aI6
aI6
aI9
aI12
aI17
aI16
aI19
aI16
aI19
aI16
aI19
aI16
aI19
aI16
aI19
aI16
aI19
aI16
aI19
aI16
aI19
aI16
aI19
aI16
aI19
aI17
aI18
aI16
aI21
aI19
aI16
aI11
aI600
tRp97
sg20
I0
sg21
I600
sg22
Nsbs(Vtmall_campaign
S'success'
tp98
g5
(g6
g7
NtRp99
(dp100
g10
F1478625805.003089
sg11
I600
sg12
g13
((lp101
F1478762494.4740901
aF1478762680.061254
aF1478762860.8139291
aF1478763041.48247
aF1478763222.2189269
aF1478763403.008975
aF1478763583.8934939
aF1478763764.662271
aF1478763946.8445151
aF1478764127.767786
aF1478764308.4952149
aF1478764489.2642429
aF1478772505.7291689
aF1478772650.919096
aF1478772795.868449
aF1478772940.985059
aF1478773086.7601681
aF1478773231.452213
aF1478773376.0458219
aF1478773521.3911159
aF1478773666.989032
aF1478773811.5515299
aF1478773957.721035
aF1478774103.2155499
aF1478774248.1972139
aF1478774393.5185881
aF1478774538.3548689
aF1478774682.9153111
aF1478774828.6561971
aF1478774973.9556079
aF1478775120.4918561
aF1478775264.896522
aF1478775409.98103
aF1478775554.4256451
aF1478775734.4673491
aF1478775879.3396311
aF1478776024.4775181
aF1478776170.597995
aF1478776318.289443
aF1478778453.93765
aF1478778599.813096
aF1478778744.0285821
aF1478778888.1443241
aF1478779032.3698621
aF1478779178.5497019
aF1478779323.033767
aF1478779467.0389731
aF1478779613.8284941
aF1478779758.28915
aF1478779904.382551
aF1478780049.355186
aF1478780193.4757891
aF1478780340.3891599
aF1478780485.4637079
aF1478780668.624609
aF1478780814.4382961
aF1478780960.4298871
aF1478781107.6105709
aF1478781254.2658451
aF1478781400.5999711
aF1478781546.3811641
aF1478781692.419832
aF1478781838.4025309
aF1478781984.5026751
aF1478782130.2924681
aF1478782276.0695009
aF1478782421.8216391
aF1478782567.663965
aF1478782731.5951409
aF1478782877.477093
aF1478783023.81091
aF1478783170.035476
aF1478783318.638998
aF1478783464.5838759
aF1478783610.5855069
aF1478783757.167213
aF1478783903.489856
aF1478784050.5563481
aF1478784200.6117301
aF1478784357.4100161
aF1478784507.88027
aF1478784678.232439
aF1478784827.953686
aF1478784977.7924221
aF1478785127.6399751
aF1478785287.8857491
aF1478785449.961391
aF1478785600.0020001
aF1478785749.8461339
aF1478785899.8142691
aF1478786047.107049
aF1478786210.469239
aF1478786390.474834
aF1478786564.8627441
aF1478786715.2021501
aF1478786863.5417161
aF1478787028.5304451
aF1478787175.0210619
aF1478787351.9096341
aF1478787512.5264709
aF1478787659.9752419
aF1478787824.49193
aF1478787989.7196939
aF1478788148.4338729
aF1478788294.8137929
aF1478788440.755199
aF1478788586.01793
aF1478788731.8467419
aF1478788877.707597
aF1478789041.830528
aF1478789187.92294
aF1478789334.539674
aF1478789479.5224199
aF1478789626.4139891
aF1478789773.6798019
aF1478789919.469588
aF1478790064.766484
aF1478790210.603112
aF1478790355.7814519
aF1478790500.392014
aF1478790646.009268
aF1478790794.6450839
aF1478790940.567523
aF1478791086.298429
aF1478791231.067714
aF1478791376.197032
aF1478791521.9026201
aF1478791666.310226
aF1478791812.163727
aF1478791956.635736
aF1478792103.1586261
aF1478792248.5620251
aF1478792393.284296
aF1478792537.804966
aF1478792681.9673271
aF1478792826.5399909
aF1478792971.6411669
aF1478793116.034791
aF1478793261.5755031
aF1478793406.829154
aF1478793552.11338
aF1478793697.0738969
aF1478793841.4888899
aF1478793988.4433329
aF1478794133.8545079
aF1478794279.0647171
aF1478794423.3086259
aF1478794569.2348499
aF1478794713.6757071
aF1478794859.85201
aF1478795005.1467359
aF1478795149.855912
aF1478795295.0888021
aF1478795439.20608
aF1478795583.946408
aF1478795728.0267069
aF1478795872.270916
aF1478796016.602268
aF1478796162.5844491
aF1478796308.198355
aF1478796454.984726
aF1478796600.5787549
aF1478796746.3744791
aF1478796891.9482851
aF1478797036.8928051
aF1478797180.9088981
aF1478797327.0323081
aF1478797473.070498
aF1478797617.715374
aF1478797762.791692
aF1478797909.998316
aF1478798054.23105
aF1478798198.798624
aF1478798344.2997561
aF1478798489.0338221
aF1478798635.578002
aF1478798781.3901279
aF1478798926.3109429
aF1478799070.7163329
aF1478799215.532588
aF1478799360.3721781
aF1478799504.9085
aF1478799650.694376
aF1478799795.4643531
aF1478799939.703877
aF1478800083.8891389
aF1478800228.136477
aF1478800376.7953241
aF1478800523.2284939
aF1478800671.433182
aF1478800818.218936
aF1478800962.9865079
aF1478801114.8721781
aF1478801259.954421
aF1478801408.2259259
aF1478801557.1911061
aF1478801701.736552
aF1478801854.294291
aF1478802001.5888169
aF1478802148.6000049
aF1478802296.2422309
aF1478802442.618392
aF1478802589.509584
aF1478802736.9745319
aF1478802883.8454511
aF1478803031.0202961
aF1478803178.6821959
aF1478803325.878417
aF1478803474.4828911
aF1478803622.4602759
aF1478803767.4088709
aF1478803916.5157981
aF1478804060.8434
aF1478804206.997555
aF1478804353.163945
aF1478804499.5263619
aF1478804646.3146081
aF1478804791.8251541
aF1478804940.830184
aF1478805087.1199019
aF1478805231.820318
aF1478805375.8372951
aF1478805521.595376
aF1478805669.0496359
aF1478805813.1644211
aF1478805959.961683
aF1478806107.149209
aF1478806252.7277949
aF1478806397.807631
aF1478806543.6219299
aF1478806691.66927
aF1478806838.685684
aF1478806984.4262021
aF1478807132.83535
aF1478807285.1691201
aF1478807432.827518
aF1478807582.0228989
aF1478807727.518373
aF1478807872.20788
aF1478808017.780942
aF1478808165.186651
aF1478808310.64887
aF1478808458.443145
aF1478808603.0691669
aF1478808747.6183081
aF1478808894.9441891
aF1478809041.1976709
aF1478809190.0201311
aF1478809335.7347901
aF1478809482.7375381
aF1478809630.7757349
aF1478809777.704432
aF1478809925.412087
aF1478810070.930685
aF1478810219.899348
aF1478810364.1589799
aF1478810509.395087
aF1478810654.7093401
aF1478810802.779371
aF1478810951.1122429
aF1478811095.850054
aF1478811245.7762949
aF1478811392.70086
aF1478811538.854497
aF1478811686.6286819
aF1478811834.258728
aF1478811982.266921
aF1478812128.945668
aF1478812273.832284
aF1478812418.5276151
aF1478812566.2332499
aF1478812712.374902
aF1478812860.78038
aF1478813007.0386159
aF1478813154.030313
aF1478813301.6426909
aF1478813449.3426189
aF1478813596.3443379
aF1478813742.6136079
aF1478813890.275455
aF1478814037.7321479
aF1478814185.2355449
aF1478814331.7939579
aF1478814480.5366449
aF1478814628.9275379
aF1478814773.0972869
aF1478814922.536411
aF1478815069.119468
aF1478815215.0691819
aF1478815359.532732
aF1478815503.5972359
aF1478815652.552453
aF1478815799.4209471
aF1478815947.4361849
aF1478816091.716399
aF1478816240.5514989
aF1478816388.7144051
aF1478816535.9293239
aF1478816683.4531901
aF1478816828.6545451
aF1478816977.6643419
aF1478817124.364984
aF1478817271.9968481
aF1478817421.2919061
aF1478817565.9663761
aF1478817713.3415079
aF1478817861.7862921
aF1478818009.5755219
aF1478818155.448724
aF1478818301.9704211
aF1478818450.4956591
aF1478818597.846508
aF1478818744.1004691
aF1478818891.7857239
aF1478819038.4586191
aF1478819186.1648841
aF1478819333.5778091
aF1478819480.2286589
aF1478819627.241889
aF1478819774.3721199
aF1478819921.139394
aF1478820067.848141
aF1478820214.1740749
aF1478820362.2331419
aF1478820511.476151
aF1478820656.3532479
aF1478820804.8541059
aF1478820952.161804
aF1478821097.548492
aF1478821246.3824871
aF1478821393.3613629
aF1478821540.3936999
aF1478821687.4753909
aF1478821833.819922
aF1478821981.697489
aF1478822127.9511919
aF1478822275.488292
aF1478822424.75598
aF1478822570.3091509
aF1478822716.580699
aF1478822863.128659
aF1478823008.9118969
aF1478823157.5939779
aF1478823305.2621419
aF1478823451.883471
aF1478823598.984489
aF1478823745.878032
aF1478823889.962079
aF1478824034.7080581
aF1478824182.8067751
aF1478824329.2978749
aI600
tRp102
sg16
I144
sg17
g13
((lp103
I3
aI3
aI3
aI3
aI3
aI3
aI3
aI3
aI4
aI3
aI4
aI5
aI70
aI72
aI72
aI72
aI72
aI71
aI72
aI72
aI71
aI72
aI72
aI72
aI71
aI72
aI71
aI72
aI72
aI71
aI71
aI72
aI72
aI54
aI75
aI71
aI73
aI71
aI47
aI71
aI71
aI71
aI70
aI73
aI72
aI70
aI72
aI72
aI71
aI73
aI71
aI72
aI72
aI22
aI2
aI2
aI2
aI3
aI2
aI3
aI2
aI3
aI2
aI2
aI2
aI2
aI2
aI2
aI3
aI3
aI2
aI4
aI3
aI2
aI3
aI2
aI2
aI3
aI3
aI2
aI2
aI2
aI2
aI2
aI3
aI2
aI2
aI4
aI2
aI2
aI4
aI3
aI4
aI3
aI3
aI2
aI4
aI2
aI2
aI2
aI2
aI2
aI2
aI2
aI2
aI2
aI2
aI2
aI2
aI2
aI8
aI72
aI72
aI72
aI72
aI73
aI71
aI72
aI72
aI72
aI72
aI73
aI72
aI72
aI71
aI71
aI72
aI71
aI72
aI72
aI73
aI71
aI72
aI71
aI71
aI72
aI70
aI73
aI72
aI71
aI71
aI71
aI73
aI71
aI72
aI71
aI73
aI71
aI72
aI72
aI71
aI71
aI72
aI71
aI72
aI71
aI71
aI72
aI72
aI71
aI73
aI72
aI70
aI72
aI72
aI72
aI72
aI72
aI71
aI72
aI71
aI72
aI71
aI71
aI73
aI72
aI72
aI71
aI71
aI72
aI71
aI72
aI71
aI72
aI71
aI71
aI33
aI29
aI29
aI29
aI28
aI28
aI31
aI29
aI29
aI29
aI29
aI30
aI29
aI29
aI29
aI29
aI29
aI29
aI29
aI29
aI29
aI29
aI29
aI29
aI29
aI29
aI28
aI29
aI29
aI29
aI29
aI29
aI29
aI28
aI29
aI29
aI29
aI28
aI29
aI29
aI29
aI28
aI29
aI29
aI29
aI29
aI29
aI29
aI30
aI29
aI29
aI28
aI29
aI29
aI29
aI29
aI28
aI29
aI29
aI29
aI29
aI29
aI29
aI29
aI29
aI29
aI29
aI29
aI29
aI28
aI29
aI29
aI29
aI29
aI29
aI29
aI29
aI29
aI29
aI29
aI29
aI28
aI29
aI29
aI29
aI29
aI29
aI29
aI29
aI29
aI29
aI29
aI29
aI29
aI29
aI29
aI29
aI29
aI29
aI29
aI29
aI29
aI28
aI29
aI29
aI29
aI29
aI28
aI30
aI29
aI29
aI29
aI29
aI29
aI29
aI29
aI29
aI29
aI29
aI29
aI29
aI29
aI29
aI29
aI29
aI29
aI29
aI29
aI29
aI29
aI29
aI29
aI29
aI29
aI29
aI29
aI29
aI29
aI29
aI29
aI29
aI28
aI30
aI29
aI29
aI29
aI29
aI29
aI29
aI29
aI29
aI29
aI29
aI29
aI29
aI29
aI29
aI29
aI29
aI29
aI28
aI29
aI29
aI29
aI14
aI600
tRp104
sg20
I0
sg21
I600
sg22
Nsbs(S'tmall_index'
g3
tp105
g5
(g6
g7
NtRp106
(dp107
g10
F1478747517.865968
sg11
I600
sg12
g13
((lp108
F1478762396.9532681
aF1478762542.3134589
aF1478762688.3779881
aF1478762845.115793
aF1478763465.4273169
aF1478763626.38132
aF1478763775.708077
aF1478763927.1976399
aF1478764102.9552901
aF1478764667.3395979
aF1478764813.7646201
aF1478764976.6765151
aF1478765138.346947
aF1478766025.4385071
aF1478766187.514782
aF1478766336.6796179
aF1478766495.6706829
aF1478766642.9756441
aF1478766790.410296
aF1478766942.830374
aF1478767108.917659
aF1478767261.987489
aF1478768401.653749
aF1478768549.8591919
aF1478768706.1098471
aF1478768852.876272
aF1478769004.8006179
aF1478769168.4710319
aF1478769339.8198709
aF1478769507.4653399
aF1478769658.366389
aF1478770814.944927
aF1478770962.287796
aF1478771110.4260731
aF1478771261.5723071
aF1478771419.492254
aF1478771565.940526
aF1478771748.338855
aF1478771935.227355
aF1478772097.7774291
aF1478773263.6026671
aF1478773451.9183011
aF1478773618.0336671
aF1478773762.8360341
aF1478773937.0633249
aF1478774082.4773641
aF1478774279.829957
aF1478774466.8707941
aF1478774637.5073869
aF1478775602.066612
aF1478775749.5593331
aF1478775898.563693
aF1478776072.4186561
aF1478776216.5843971
aF1478778460.301528
aF1478778608.283746
aF1478778802.0942769
aF1478778990.2825
aF1478779206.5539479
aF1478779350.61501
aF1478779558.8058059
aF1478779706.335937
aF1478780542.304286
aF1478780705.835227
aF1478780858.5771949
aF1478781019.4360161
aF1478781176.20382
aF1478781358.681495
aF1478781541.7092969
aF1478781714.7352729
aF1478782802.4266789
aF1478782965.2763009
aF1478783117.0227699
aF1478783273.5127881
aF1478783425.7338431
aF1478783588.540308
aF1478783756.1526611
aF1478783909.1823919
aF1478784059.590647
aF1478785204.4841161
aF1478785350.8953421
aF1478785497.989846
aF1478785646.129492
aF1478785813.159811
aF1478785959.32234
aF1478786148.119947
aF1478786401.8253369
aF1478786599.3227961
aF1478787603.3816149
aF1478787749.8246729
aF1478787894.0205569
aF1478788044.8507249
aF1478788228.2534311
aF1478788421.5394919
aF1478788578.215951
aF1478788804.793479
aF1478788960.972697
aF1478789577.9635019
aF1478789728.38467
aF1478789872.5688419
aF1478790027.062516
aF1478790176.3934391
aF1478790327.18734
aF1478790471.6027751
aF1478790626.5710261
aF1478791241.8843529
aF1478791417.9126
aF1478791567.7548771
aF1478791713.1589019
aF1478792444.3827641
aF1478792599.7293749
aF1478792816.9088371
aF1478793602.6658559
aF1478793770.448458
aF1478793963.31604
aF1478794183.6006241
aF1478794339.5828121
aF1478794486.6993811
aF1478794632.9161711
aF1478794796.568284
aF1478794943.851908
aF1478796032.5546131
aF1478796180.6404741
aF1478796341.5488429
aF1478796509.6351249
aF1478796654.712059
aF1478796802.4134951
aF1478796998.8067541
aF1478797165.9581771
aF1478797336.421231
aF1478798421.3031981
aF1478798604.288023
aF1478798758.546876
aF1478798925.799897
aF1478799078.042727
aF1478799225.9795611
aF1478799391.6634591
aF1478799622.684339
aF1478800802.1346481
aF1478800948.8729899
aF1478801113.1377721
aF1478801265.2014019
aF1478801409.9607961
aF1478801598.7124751
aF1478801751.010437
aF1478801978.161669
aF1478802155.1685481
aF1478803230.8915751
aF1478803392.37239
aF1478803550.3747399
aF1478803701.6810629
aF1478803849.7293911
aF1478803997.197751
aF1478804147.702219
aF1478804347.62568
aF1478804536.1371241
aF1478805630.390023
aF1478805777.118654
aF1478805925.9747641
aF1478806078.2252049
aF1478806239.2710581
aF1478806383.3594489
aF1478806599.6082079
aF1478806752.990334
aF1478807078.882226
aF1478808002.403759
aF1478808148.849046
aF1478808397.7860899
aF1478808557.0815849
aF1478808703.578007
aF1478808855.3859401
aF1478809006.0551021
aF1478809282.6359079
aF1478809449.5336671
aF1478810428.0834129
aF1478810601.397892
aF1478810754.885498
aF1478810911.525821
aF1478811102.964257
aF1478811251.8350439
aF1478811396.967871
aF1478811625.8576019
aF1478811816.247009
aF1478812827.670485
aF1478813015.8546419
aF1478813226.006047
aF1478813370.284678
aF1478813532.9497311
aF1478813689.506942
aF1478813836.9020579
aF1478813991.6499519
aF1478815201.772857
aF1478815363.592752
aF1478815513.710063
aF1478815665.0654271
aF1478815821.292213
aF1478815966.59958
aF1478816116.3196471
aF1478816268.4566741
aF1478816420.6156349
aF1478816573.6932211
aF1478817631.9974649
aF1478817787.8264699
aF1478817937.093111
aF1478818120.760149
aF1478818291.431217
aF1478818459.0554249
aF1478818621.821213
aF1478818788.3726771
aF1478818983.750576
aF1478820029.1673141
aF1478820186.5421071
aF1478820335.715416
aF1478820545.824367
aF1478820695.0915909
aF1478820842.5171959
aF1478821004.026984
aF1478821148.2929211
aF1478821339.9723201
aF1478822402.1315081
aF1478822552.4998629
aF1478822706.2572629
aF1478822855.536418
aF1478823056.5737979
aF1478823204.43995
aF1478823353.0126729
aF1478823549.4032309
aF1478823717.1049521
aF1478824827.5951991
aF1478825014.4157059
aF1478825252.3159721
aF1478825424.943754
aF1478825572.0250089
aF1478825770.2399161
aF1478825931.7419319
aF1478826190.3669059
aF1478826342.132478
aF1478826487.0149889
aF1478827229.2800679
aF1478827374.714777
aF1478827542.822511
aF1478827688.4253881
aF1478827840.965065
aF1478827992.1640241
aF1478828139.0572691
aF1478828291.251559
aF1478828448.0979249
aF1478829145.5286751
aF1478829294.271456
aF1478829545.423285
aF1478829694.175339
aF1478829841.7522891
aF1478830000.5589571
aF1478830158.932616
aF1478830340.372556
aF1478830501.368309
aF1478830698.7546871
aI600
tRp109
sg16
I144
sg17
g13
((lp110
I21
aI21
aI23
aI5
aI73
aI27
aI19
aI12
aI27
aI53
aI33
aI13
aI4
aI98
aI19
aI24
aI16
aI55
aI31
aI10
aI14
aI6
aI44
aI60
aI30
aI26
aI19
aI25
aI19
aI50
aI5
aI71
aI54
aI32
aI15
aI13
aI17
aI56
aI16
aI5
aI59
aI37
aI74
aI7
aI24
aI13
aI30
aI30
aI10
aI55
aI23
aI20
aI35
aI29
aI77
aI47
aI22
aI20
aI17
aI55
aI10
aI4
aI65
aI44
aI19
aI32
aI34
aI7
aI56
aI6
aI66
aI24
aI31
aI51
aI22
aI11
aI17
aI34
aI13
aI83
aI32
aI13
aI38
aI10
aI24
aI26
aI53
aI2
aI84
aI18
aI32
aI27
aI17
aI21
aI14
aI46
aI9
aI56
aI21
aI35
aI22
aI29
aI33
aI17
aI17
aI44
aI35
aI26
aI31
aI53
aI32
aI8
aI111
aI26
aI14
aI24
aI35
aI18
aI36
aI20
aI10
aI88
aI39
aI31
aI27
aI15
aI27
aI7
aI23
aI12
aI69
aI27
aI22
aI60
aI17
aI11
aI30
aI21
aI87
aI39
aI28
aI30
aI18
aI23
aI33
aI16
aI20
aI55
aI28
aI35
aI13
aI94
aI17
aI19
aI4
aI13
aI87
aI45
aI25
aI34
aI9
aI23
aI12
aI51
aI7
aI84
aI40
aI30
aI30
aI23
aI16
aI36
aI25
aI1
aI87
aI24
aI26
aI35
aI38
aI13
aI30
aI28
aI4
aI64
aI28
aI57
aI40
aI25
aI10
aI8
aI20
aI108
aI23
aI23
aI9
aI21
aI16
aI56
aI15
aI15
aI13
aI72
aI20
aI26
aI36
aI34
aI55
aI16
aI9
aI12
aI66
aI45
aI25
aI14
aI74
aI10
aI11
aI23
aI11
aI91
aI10
aI24
aI22
aI36
aI18
aI53
aI12
aI14
aI76
aI5
aI76
aI37
aI20
aI9
aI20
aI28
aI14
aI11
aI76
aI18
aI28
aI19
aI20
aI30
aI15
aI38
aI3
aI31
aI1
aI77
aI34
aI38
aI41
aI20
aI7
aI17
aI2
aI600
tRp111
sg20
I0
sg21
I600
sg22
Nsbs(Vtmall_seckill
S'success'
tp112
g5
(g6
g7
NtRp113
(dp114
g10
F1478517120.7702661
sg11
I600
sg12
g13
((lp115
F1478831114.2400751
aF1478831258.786196
aF1478831403.539963
aF1478831548.6932449
aF1478832042.5396941
aF1478832187.384726
aF1478832687.5906501
aF1478833056.0995309
aF1478833201.0026
aF1478833370.1522501
aF1478833775.9673381
aF1478834020.7050469
aF1478834401.817445
aF1478834621.3041959
aF1478834887.6487429
aF1478835128.0056751
aF1478835603.263134
aF1478835766.886338
aF1478835910.9168561
aF1478836424.2012429
aF1478836719.4621511
aF1478836929.4939671
aF1478837340.953903
aF1478837485.6282549
aF1478837629.8250251
aF1478838228.1783819
aF1478838524.9798801
aF1478838769.8352361
aF1478839168.3365891
aF1478839313.7126019
aF1478840031.8323591
aF1478840369.2061911
aF1478840613.5711491
aF1478841234.9432161
aF1478841606.8085351
aF1478841836.3757761
aF1478842286.9001369
aF1478842437.846472
aF1478843038.891443
aF1478843488.1918941
aF1478843640.029748
aF1478844001.147625
aF1478844177.5826211
aF1478844321.6616769
aF1478844601.835454
aF1478844843.63643
aF1478845202.676466
aF1478845444.222949
aF1478845803.5755081
aF1478845979.8404031
aF1478846404.1563079
aF1478846646.9641941
aF1478847004.5925181
aF1478847248.4217379
aF1478847600.5806241
aF1478847849.5048599
aF1478848019.1942091
aF1478848450.862834
aI600
tRp116
sg16
I144
sg17
g13
((lp117
I57
aI61
aI66
aI18
aI68
aI51
aI8
aI50
aI24
aI18
aI76
aI62
aI1
aI12
aI21
aI46
aI106
aI47
aI3
aI41
aI22
aI39
aI42
aI49
aI43
aI13
aI49
aI51
aI57
aI70
aI63
aI38
aI61
aI85
aI3
aI43
aI104
aI51
aI31
aI52
aI6
aI42
aI144
aI22
aI2
aI30
aI2
aI69
aI11
aI54
aI121
aI14
aI22
aI9
aI58
aI87
aI137
aI32
aI600
tRp118
sg20
I2
sg21
I600
sg22
F1478848653.372189
sbs(Vtmall_item
p119
g48
tp120
g5
(g6
g7
NtRp121
(dp122
g10
F1478800281.738236
sg11
F336.38641147977773
sg12
g13
((lp123
F1478800281.738236
aF1478800426.2955279
aF1478800570.9725239
aF1478800716.8580389
aF1478800861.27999
aF1478801006.026392
aF1478801150.1402249
aF1478801294.340126
aF1478801438.876812
aF1478801584.286382
aF1478801728.8505731
aF1478801873.5324869
aF1478802024.226707
aF1478802168.3392179
aF1478802319.5025091
aF1478802464.4055791
aF1478802629.6259899
aF1478802781.8369091
aF1478802945.968044
aF1478803092.7488511
aF1478803265.836695
aF1478803421.2490549
aF1478803570.596945
aF1478803716.661432
aF1478803896.704777
aF1478804044.4379981
aF1478804217.032124
aF1478804374.5205679
aF1478804521.511924
aF1478804687.969326
aF1478804832.5180559
aF1478805136.084089
aF1478805280.161448
aF1478805424.493731
aF1478805569.16396
aF1478805714.6772029
aF1478805858.752651
aF1478806003.251291
aF1478806147.981926
aF1478806292.550921
aF1478806437.3639951
aF1478806582.0891371
aF1478806727.627419
aF1478806873.0363851
aF1478807017.3244331
aF1478807162.2982881
aF1478807307.6595571
aF1478807452.189815
aF1478807596.8224571
aF1478807740.8661981
aF1478807885.1816001
aF1478808029.919606
aF1478808176.410917
aF1478808321.0798621
aF1478808466.3594689
aF1478808610.6465299
aF1478808754.712302
aF1478808899.2971549
aF1478809044.142447
aF1478809189.422116
aF1478809334.3288691
aF1478809478.991292
aF1478809624.0591171
aF1478809768.3838069
aF1478809914.177521
aF1478810058.8942211
aF1478810204.933372
aF1478810348.9749501
aF1478810493.0836279
aF1478810637.49683
aF1478810784.454473
aF1478810929.125381
aF1478811074.0666599
aF1478811219.760885
aF1478811364.5325639
aF1478811509.7306719
aF1478811653.90892
aF1478811798.3624799
aF1478811942.668426
aF1478812087.2296801
aF1478812231.2737889
aF1478812375.781759
aF1478812519.9410241
aF1478812664.6450939
aF1478812809.8298719
aF1478812953.9676039
aF1478813099.0417991
aF1478813244.415343
aF1478813389.33759
aF1478813534.0607891
aF1478813678.6724939
aF1478813823.78108
aF1478813968.1856821
aF1478814112.2078021
aF1478814256.405947
aF1478814400.9955101
aF1478814545.3784189
aF1478814689.566407
aF1478814833.8880451
aF1478814978.2691591
aF1478815122.328573
aF1478815266.3362279
aF1478815410.4332719
aF1478815554.8512731
aF1478815699.2781069
aF1478815843.739377
aF1478815988.1594729
aF1478816133.3219359
aF1478816281.4010229
aF1478816426.7972331
aF1478816572.4688699
aF1478816719.2206559
aF1478816863.3463819
aF1478817013.8950009
aF1478817158.0160739
aF1478817302.5895491
aF1478817448.3413501
aF1478817593.011425
aF1478817738.5386269
aF1478817882.834543
aF1478818029.7188389
aF1478818173.805043
aF1478818318.580935
aF1478818463.5813689
aF1478818607.7480669
aF1478818753.4305899
aF1478818897.552547
aF1478819042.3132751
aF1478819192.130012
aF1478819336.930531
aF1478819485.796643
aF1478819629.9736619
aF1478819774.7773869
aF1478819921.543216
aF1478820065.923871
aF1478820215.5900331
aF1478820360.004734
aF1478820504.181705
aF1478820648.6646259
aF1478820792.6821239
aF1478820936.805577
aF1478821081.8567929
aF1478821227.1525459
aF1478821372.487186
aF1478821517.1598361
aF1478821661.45842
aF1478821810.109519
aF1478821954.7883589
aF1478822099.6768329
aF1478822247.3755369
aF1478822391.6580081
aF1478822536.267441
aF1478822680.6727009
aF1478822825.160171
aF1478822970.3521979
aF1478823114.3945651
aF1478823258.4699531
aF1478823402.7022059
aF1478823547.0529721
aF1478823696.962981
aF1478823841.1574121
aF1478823986.2147679
aF1478824130.8407609
aF1478824275.305125
aI600
tRp124
sg16
I144
sg17
g13
((lp125
I142
aI132
aI126
aI124
aI131
aI125
aI130
aI129
aI112
aI86
aI86
aI67
aI65
aI63
aI50
aI39
aI24
aI27
aI17
aI20
aI18
aI17
aI14
aI11
aI10
aI10
aI11
aI15
aI6
aI8
aI4
aI137
aI134
aI134
aI132
aI133
aI136
aI135
aI135
aI133
aI133
aI134
aI133
aI134
aI136
aI133
aI135
aI132
aI133
aI133
aI133
aI136
aI134
aI136
aI135
aI132
aI136
aI137
aI135
aI135
aI131
aI135
aI134
aI132
aI135
aI134
aI133
aI134
aI134
aI134
aI136
aI131
aI138
aI135
aI134
aI132
aI133
aI134
aI132
aI133
aI135
aI131
aI134
aI133
aI133
aI133
aI134
aI133
aI135
aI131
aI135
aI135
aI131
aI133
aI132
aI134
aI134
aI132
aI134
aI134
aI131
aI134
aI121
aI126
aI128
aI120
aI126
aI125
aI128
aI126
aI126
aI125
aI126
aI126
aI126
aI124
aI125
aI125
aI120
aI128
aI127
aI120
aI127
aI121
aI126
aI121
aI124
aI123
aI123
aI125
aI122
aI122
aI119
aI122
aI121
aI121
aI121
aI118
aI119
aI120
aI116
aI123
aI122
aI117
aI121
aI120
aI122
aI121
aI120
aI121
aI119
aI121
aI113
aI119
aI118
aI117
aI114
aI119
aI117
aI118
aI118
aI119
aI111
aI88
aI600
tRp126
sg20
I0
sg21
I600
sg22
Nsbs(S'tmall_miao'
p127
g3
tp128
g5
(g6
g7
NtRp129
(dp130
g10
F1478836971.732028
sg11
F81.59478624330626
sg12
g13
((lp131
F1478836971.732028
aF1478837313.4390941
aF1478837475.8476241
aF1478837672.955025
aF1478838820.4231279
aF1478839302.63008
aF1478839491.3525701
aF1478840033.7900851
aF1478840399.626339
aF1478840648.9031091
aF1478840954.435617
aF1478841147.5360019
aF1478841691.1153829
aF1478841900.4367721
aF1478842382.418087
aF1478843054.9615541
aF1478843537.129168
aF1478844060.7812569
aF1478844241.5176589
aF1478844608.187803
aF1478844909.4209399
aF1478845511.9153669
aF1478845817.827625
aF1478845998.578167
aF1478846484.973793
aF1478846676.5374629
aF1478847038.292551
aF1478847660.7522509
aF1478847907.5511179
aF1478848105.482058
aF1478848469.7601061
aI600
tRp132
sg16
I144
sg17
g13
((lp133
I109
aI110
aI193
aI42
aI22
aI188
aI16
aI85
aI28
aI86
aI209
aI126
aI101
aI48
aI181
aI32
aI80
aI92
aI180
aI16
aI48
aI102
aI15
aI124
aI133
aI16
aI32
aI109
aI135
aI117
aI16
aI600
tRp134
sg20
I0
sg21
I600
sg22
Nsbs(Vtmall_seckill
g31
tp135
g5
(g6
g7
NtRp136
(dp137
g10
F1478833576.2421739
sg11
F105.17457472946909
sg12
g13
((lp138
F1478833576.2421739
aF1478833774.8435609
aF1478834886.217016
aF1478836928.693948
aF1478837416.9338491
aF1478837566.581943
aF1478837721.2322879
aF1478838266.1249371
aF1478838518.870995
aF1478838769.220185
aF1478839275.8849151
aF1478845979.1252561
aI600
tRp139
sg16
I144
sg17
g13
((lp140
I1
aI1
aI1
aI6
aI4
aI6
aI2
aI1
aI3
aI2
aI1
aI1
aI600
tRp141
sg20
I0
sg21
I600
sg22
Nsbs(Vtmall_miao
p142
g48
tp143
g5
(g6
g7
NtRp144
(dp145
g10
F1478836972.1245329
sg11
F81.59206038879023
sg12
g13
((lp146
F1478836972.1245329
aF1478837311.7219219
aF1478837456.8135991
aF1478837602.4934869
aF1478837746.874742
aF1478837916.840621
aF1478838097.3817191
aF1478838277.993886
aF1478838458.868077
aF1478838639.549608
aF1478838820.413748
aF1478839001.1624169
aF1478839181.898489
aF1478839326.322845
aF1478839470.65137
aF1478839672.10058
aF1478839852.945399
aF1478840033.7689469
aF1478840218.8570089
aF1478840399.6216111
aF1478840588.608155
aF1478840732.7227819
aF1478840894.136987
aF1478841038.671479
aF1478841183.023634
aF1478841689.4992111
aF1478841833.9426811
aF1478842020.9258111
aF1478842201.6574359
aF1478842382.411381
aF1478842527.073669
aF1478842693.5302141
aF1478842874.205224
aF1478843054.9558771
aF1478843235.7714529
aF1478843416.6508451
aF1478843561.728116
aF1478843722.9368811
aF1478843903.835191
aF1478844060.776418
aF1478844205.7654009
aF1478844349.963613
aF1478844547.961237
aF1478844728.686815
aF1478844909.4141359
aF1478845090.1894779
aF1478845270.8126571
aF1478845451.671504
aF1478845596.258594
aF1478845757.5483871
aF1478845938.3646491
aF1478846082.5233541
aF1478846242.810375
aF1478846424.6116199
aF1478846569.5807891
aF1478846736.9307859
aF1478846917.8208189
aF1478847062.7215359
aF1478847219.1209121
aF1478847399.9177179
aF1478847580.6996291
aF1478847725.7410469
aF1478847907.54618
aF1478848051.9484501
aF1478848196.6979411
aF1478848349.093785
aF1478848530.0334761
aI600
tRp147
sg16
I144
sg17
g13
((lp148
I20
aI146
aI144
aI145
aI9
aI3
aI3
aI3
aI3
aI3
aI25
aI3
aI25
aI144
aI43
aI3
aI3
aI88
aI3
aI32
aI85
aI6
aI86
aI143
aI64
aI145
aI57
aI3
aI3
aI145
aI41
aI3
aI3
aI35
aI3
aI27
aI58
aI3
aI3
aI87
aI117
aI76
aI19
aI3
aI51
aI3
aI3
aI86
aI21
aI18
aI49
aI80
aI3
aI86
aI68
aI3
aI25
aI12
aI3
aI3
aI66
aI49
aI129
aI102
aI29
aI19
aI3
aI600
tRp149
sg20
I1
sg21
I600
sg22
F1478848710.881201
sbs(Vtmall_dangdang
p150
g48
tp151
g5
(g6
g7
NtRp152
(dp153
g10
F1478802237.196393
sg11
F322.80683788160485
sg12
g13
((lp154
F1478802237.196393
aF1478802389.762115
aF1478802628.009356
aF1478802778.8804641
aF1478803058.2147901
aF1478803208.7125101
aF1478803456.5100679
aF1478803612.5937819
aF1478803964.3620479
aF1478804121.6823969
aF1478804283.566643
aF1478804442.4226589
aF1478804602.7501471
aF1478804763.6020889
aF1478804924.4435899
aF1478805086.0246389
aF1478805393.5478539
aF1478805556.5043099
aF1478805717.199291
aF1478805877.3675649
aF1478806041.7881341
aF1478806197.9817531
aF1478806358.5675559
aF1478806519.837646
aF1478806680.011482
aF1478806840.1152079
aF1478807001.0261769
aF1478807161.7952981
aF1478807321.730377
aF1478807482.8108821
aF1478807642.905
aF1478807804.829442
aF1478807965.0435021
aF1478808124.9583189
aF1478808285.7321119
aF1478808445.99821
aF1478808607.4049771
aF1478808766.6494589
aF1478808928.5552051
aF1478809087.4797871
aF1478809249.875006
aF1478809408.374135
aF1478809569.492831
aF1478809729.552047
aF1478809890.3803401
aF1478810050.6915441
aF1478810211.1051669
aF1478810371.760505
aF1478810532.5610721
aF1478810692.7557099
aF1478810853.4471869
aF1478811013.670568
aF1478811175.0578091
aF1478811334.677068
aF1478811495.0430341
aF1478811655.530858
aF1478811817.2563241
aF1478811976.7994859
aF1478812137.6625609
aF1478812297.842339
aF1478812459.3646891
aF1478812618.8733261
aF1478812779.444387
aF1478812940.7948661
aF1478813100.755023
aF1478813247.3430171
aF1478813402.0193651
aF1478813562.409055
aF1478813722.6711619
aF1478813883.7102051
aF1478814043.6095121
aF1478814204.279177
aF1478814364.4946339
aF1478814525.5339761
aF1478814686.018898
aF1478814846.6554899
aF1478815007.0330729
aF1478815172.8997021
aF1478815327.8720939
aF1478815488.944097
aF1478815648.6150701
aF1478815811.154707
aF1478815970.4484351
aF1478816130.794739
aF1478816291.6402559
aF1478816452.2048271
aF1478816613.0892229
aF1478816773.420821
aF1478816934.0055621
aF1478817095.3323979
aF1478817255.363297
aF1478817415.9281039
aF1478817577.302048
aF1478817737.031626
aF1478817897.5137291
aF1478818058.0933509
aF1478818218.634721
aF1478818380.685416
aF1478818539.812042
aF1478818700.280215
aF1478818861.632071
aF1478819020.9341071
aF1478819182.1222501
aF1478819342.18788
aF1478819502.6040931
aF1478819663.4731331
aF1478819823.6186891
aF1478819984.2713089
aF1478820147.349395
aF1478820305.039247
aF1478820472.0639579
aF1478820626.281708
aF1478820786.803221
aF1478820948.3310211
aF1478821107.9042201
aF1478821268.5755291
aF1478821429.628732
aF1478821590.1630449
aF1478821750.7655749
aF1478821911.278708
aF1478822072.084507
aF1478822233.0729151
aF1478822392.8244729
aF1478822555.0199599
aF1478822713.950918
aF1478822874.3831799
aF1478823034.669692
aF1478823195.481935
aF1478823356.3604829
aF1478823517.9281321
aF1478823677.1731689
aF1478823838.5196559
aF1478823998.668205
aF1478824159.1918931
aF1478824320.9040289
aF1478824470.199507
aF1478824630.4938519
aF1478824790.7218709
aF1478824951.6778591
aF1478825113.5233309
aF1478825273.1618421
aF1478825432.458436
aF1478825593.3708479
aF1478825753.355329
aF1478825918.2383239
aF1478826074.981674
aF1478826234.1665211
aF1478826394.5591271
aF1478826556.722657
aF1478826714.618974
aF1478826862.5383689
aF1478827022.898468
aF1478827183.111618
aF1478827344.5238619
aF1478827504.5558679
aF1478827664.31128
aF1478827826.1446731
aF1478827985.0382659
aF1478828145.6303761
aF1478828307.2345419
aF1478828466.3299551
aF1478828628.6027629
aF1478828786.7870691
aF1478828947.3551769
aF1478829108.536835
aF1478829268.2218599
aF1478829428.3709199
aF1478829590.301703
aF1478829749.3074141
aF1478829909.77825
aF1478830069.957212
aF1478830231.2061169
aF1478830422.0177951
aF1478830583.3055899
aF1478830743.2092741
aF1478830903.1870141
aF1478831064.2505291
aF1478831224.6479239
aF1478831385.124774
aF1478831545.559942
aF1478831705.5071459
aF1478831865.7241371
aF1478832026.4389949
aF1478832187.5866699
aF1478832348.2568049
aF1478832507.353869
aF1478832667.789501
aF1478832830.0312049
aF1478832988.563133
aF1478833149.252244
aF1478833310.2194409
aF1478833469.520889
aF1478833629.943491
aF1478833797.0668249
aF1478834006.2085159
aF1478834165.1786289
aF1478834325.1693349
aF1478834485.6634121
aF1478834646.7883501
aF1478834806.3962221
aF1478834966.66961
aF1478835127.0834949
aF1478835287.6306541
aF1478835447.96241
aF1478835609.136744
aF1478835770.125149
aF1478835929.75032
aF1478836089.7476521
aF1478836250.11536
aF1478836410.606101
aF1478836570.9336441
aF1478836732.1463139
aF1478836891.8107021
aF1478837053.7551701
aF1478837212.6045589
aF1478837373.432152
aF1478837534.2408869
aF1478837694.753305
aF1478837854.724484
aF1478838015.147038
aF1478838176.1149299
aF1478838336.3452561
aF1478838496.6670139
aF1478838657.2942619
aF1478838818.4834609
aF1478838978.056623
aF1478839138.8754351
aF1478839299.252753
aF1478839459.820837
aF1478839621.6637139
aF1478839780.398684
aF1478839940.8244081
aF1478840102.759052
aF1478840261.983501
aF1478840423.1612549
aF1478840583.7062671
aF1478840743.7795341
aF1478840910.653337
aF1478841070.933917
aF1478841221.3748391
aF1478841381.4856939
aF1478841542.370734
aF1478841702.9157331
aF1478841863.0323949
aF1478842023.856323
aF1478842183.237298
aF1478842345.2086151
aF1478842505.622689
aF1478842664.8678181
aF1478842825.440902
aF1478842985.7374899
aF1478843146.540518
aF1478843307.348098
aF1478843466.950994
aF1478843628.1761711
aF1478843789.0198901
aF1478843948.2687221
aF1478844109.532706
aF1478844269.7999091
aF1478844430.267698
aF1478844589.998775
aF1478844823.701685
aF1478844983.1945369
aF1478845143.4573569
aF1478845303.824759
aF1478845465.8917661
aF1478845625.5602369
aF1478845785.253222
aF1478845945.9513531
aF1478846106.879122
aF1478846266.976866
aI600
tRp155
sg16
I144
sg17
g13
((lp156
I7
aI2
aI3
aI2
aI3
aI1
aI6
aI5
aI8
aI8
aI8
aI8
aI8
aI8
aI8
aI3
aI5
aI8
aI8
aI8
aI8
aI8
aI8
aI8
aI8
aI8
aI8
aI8
aI8
aI8
aI8
aI8
aI8
aI8
aI8
aI8
aI8
aI8
aI8
aI8
aI8
aI8
aI8
aI8
aI8
aI8
aI8
aI8
aI8
aI8
aI8
aI8
aI8
aI8
aI8
aI8
aI8
aI8
aI8
aI8
aI8
aI8
aI8
aI8
aI7
aI8
aI8
aI8
aI8
aI8
aI8
aI8
aI8
aI8
aI8
aI8
aI8
aI8
aI8
aI8
aI8
aI8
aI8
aI8
aI8
aI8
aI8
aI8
aI8
aI8
aI8
aI8
aI8
aI8
aI8
aI8
aI8
aI8
aI8
aI8
aI8
aI8
aI8
aI8
aI8
aI8
aI8
aI8
aI8
aI8
aI8
aI8
aI8
aI8
aI8
aI8
aI8
aI8
aI8
aI8
aI8
aI8
aI8
aI8
aI8
aI8
aI8
aI8
aI8
aI8
aI8
aI8
aI8
aI8
aI7
aI8
aI8
aI8
aI8
aI8
aI8
aI8
aI8
aI8
aI8
aI8
aI8
aI8
aI8
aI3
aI8
aI8
aI8
aI8
aI8
aI8
aI8
aI8
aI8
aI8
aI8
aI8
aI8
aI8
aI8
aI8
aI8
aI8
aI8
aI8
aI8
aI5
aI8
aI8
aI8
aI8
aI8
aI8
aI8
aI8
aI8
aI8
aI8
aI8
aI8
aI8
aI8
aI8
aI8
aI8
aI8
aI8
aI8
aI7
aI8
aI8
aI8
aI8
aI8
aI8
aI8
aI8
aI8
aI8
aI8
aI8
aI8
aI8
aI8
aI8
aI8
aI8
aI8
aI8
aI8
aI8
aI8
aI8
aI8
aI8
aI8
aI8
aI8
aI8
aI8
aI8
aI8
aI8
aI8
aI8
aI8
aI8
aI8
aI8
aI8
aI8
aI5
aI9
aI6
aI8
aI8
aI8
aI8
aI8
aI8
aI8
aI8
aI8
aI8
aI8
aI8
aI8
aI8
aI8
aI8
aI8
aI8
aI8
aI8
aI8
aI7
aI9
aI8
aI8
aI8
aI8
aI8
aI8
aI8
aI8
aI8
aI600
tRp157
sg20
I0
sg21
I600
sg22
Nsbs(Vtmall_campaign
g39
tp158
g5
(g6
g7
NtRp159
(dp160
g10
F1478780533.9039409
sg11
F473.52414891786043
sg12
g13
((lp161
F1478780533.9039409
aF1478780679.389272
aF1478780826.8562059
aF1478780971.1227529
aF1478781115.2105279
aF1478781261.538789
aF1478781407.199924
aF1478781554.577558
aF1478781698.807646
aF1478781843.0530469
aF1478781987.238461
aF1478782133.0380831
aF1478782278.7051511
aF1478782424.5567479
aF1478782570.2967861
aF1478782717.007498
aF1478782861.9300699
aF1478783006.2332139
aF1478783150.474134
aF1478783294.8550811
aF1478783438.9800539
aF1478783585.0017841
aF1478783729.8397999
aF1478783875.9880199
aF1478784020.028161
aF1478784164.7017879
aF1478784309.364928
aF1478784453.6946509
aF1478784598.0744081
aF1478784742.2691629
aF1478784887.4399941
aF1478785033.761337
aF1478785179.031759
aF1478785323.6654501
aF1478785468.555361
aF1478785612.86215
aF1478785756.9390681
aF1478785902.5532629
aF1478786050.5336261
aF1478786194.8078611
aF1478786341.9206581
aF1478786486.1834631
aF1478786631.0176411
aF1478786775.1967261
aF1478786919.324985
aF1478787063.7145131
aF1478787208.2599051
aF1478787355.5614951
aF1478787500.0669191
aF1478787645.207936
aF1478787791.158406
aF1478787935.263504
aF1478788080.964292
aF1478788225.2074349
aF1478788371.695977
aF1478788516.404084
aF1478788661.741895
aF1478788807.9296019
aF1478788953.3925049
aF1478789097.889256
aF1478789243.7330129
aI600
tRp162
sg16
I144
sg17
g13
((lp163
I69
aI69
aI71
aI69
aI69
aI70
aI69
aI69
aI68
aI69
aI70
aI70
aI70
aI70
aI71
aI68
aI69
aI69
aI67
aI68
aI70
aI68
aI70
aI69
aI68
aI69
aI68
aI68
aI70
aI70
aI70
aI67
aI62
aI68
aI70
aI67
aI70
aI70
aI69
aI69
aI70
aI67
aI67
aI70
aI69
aI67
aI70
aI70
aI69
aI70
aI69
aI69
aI69
aI70
aI70
aI70
aI70
aI70
aI70
aI70
aI5
aI600
tRp164
sg20
I0
sg21
I600
sg22
Nsbs(Vtmall_shop
g48
tp165
g5
(g6
g7
NtRp166
(dp167
g10
F1478749775.517292
sg11
I600
sg12
g13
((lp168
F1478762467.448745
aF1478764352.626739
aI600
tRp169
sg16
I144
sg17
g13
((lp170
I7
aI4
aI600
tRp171
sg20
I0
sg21
I600
sg22
Nsbs(Vtmall_campaign
g31
tp172
g5
(g6
g7
NtRp173
(dp174
g10
F1478781817.392684
sg11
F464.61103253563243
sg12
g13
((lp175
F1478781817.392684
aF1478784469.6577821
aF1478785117.8336
aF1478785268.8078949
aF1478785423.0555539
aI600
tRp176
sg16
I144
sg17
g13
((lp177
I1
aI1
aI5
aI4
aI1
aI600
tRp178
sg20
I0
sg21
I600
sg22
Nsbs(Vtmall_index
p179
g48
tp180
g5
(g6
g7
NtRp181
(dp182
g10
F1478747519.2789471
sg11
I600
sg12
g13
((lp183
F1478762396.9391119
aF1478762542.3112271
aF1478762688.369204
aF1478762836.897999
aF1478763465.4192381
aF1478763614.302218
aF1478763761.215107
aF1478763905.909884
aF1478764051.799751
aF1478764202.012413
aF1478764667.3350389
aF1478764813.7573569
aF1478764959.5630419
aF1478765107.2637441
aF1478766025.436044
aF1478766171.7361741
aF1478766319.610868
aF1478766465.1224909
aF1478766614.0279191
aF1478766761.5698171
aF1478766907.6892591
aF1478767052.561368
aF1478767199.81038
aF1478767349.407146
aF1478768401.6486621
aF1478768549.846808
aF1478768695.032239
aF1478768843.207742
aF1478768989.928483
aF1478769136.4912629
aF1478769283.41977
aF1478769431.341913
aF1478769577.339597
aF1478769724.113312
aF1478770814.9389789
aF1478770962.2804561
aF1478771110.4193921
aF1478771256.5722461
aF1478771404.830991
aF1478771550.7582469
aF1478771697.5540659
aF1478771842.278981
aF1478771989.9724059
aF1478772136.8433609
aF1478773263.5962241
aF1478773409.9660139
aF1478773556.4659669
aF1478773713.0023379
aF1478773862.0199611
aF1478774007.9488201
aF1478774152.233278
aF1478774299.6318641
aF1478774445.300647
aF1478774592.1787491
aF1478775602.062449
aF1478775749.548434
aF1478775898.559617
aF1478776042.5946939
aF1478776189.0883491
aF1478776334.2757161
aF1478778460.2975249
aF1478778608.279608
aF1478778754.8470769
aF1478778902.366358
aF1478779046.620609
aF1478779193.7154551
aF1478779341.9176631
aF1478779488.992558
aF1478779633.642992
aF1478779780.956511
aF1478780542.709234
aF1478780689.8267519
aF1478780839.1022079
aF1478780983.3714671
aF1478781130.792918
aF1478781277.5222421
aF1478781426.23259
aF1478781571.2243409
aF1478781718.25561
aF1478781864.997442
aF1478782802.4222939
aF1478782950.604296
aF1478783096.6497431
aF1478783245.1337099
aF1478783391.6316979
aF1478783536.2712941
aF1478783680.5345311
aF1478783827.2679169
aF1478784003.646872
aF1478784150.1325209
aF1478785204.478555
aF1478785350.88955
aF1478785497.974479
aF1478785646.1197259
aF1478785792.826242
aF1478785938.2894809
aF1478786084.8617611
aF1478786232.0235331
aF1478786401.709549
aF1478786547.5257399
aF1478787603.3799281
aF1478787749.818567
aF1478787893.9999149
aF1478788039.1559031
aF1478788184.173629
aF1478788331.1280439
aF1478788476.0198989
aF1478788624.188288
aF1478788804.7755909
aF1478788951.6629641
aF1478789582.5863431
aF1478789728.3748879
aF1478789872.558579
aF1478790019.4921529
aF1478790164.1538849
aF1478790309.1327691
aF1478790454.5164809
aF1478790603.017791
aF1478790749.987407
aF1478791241.8747971
aF1478791387.717802
aF1478791536.6582761
aF1478791683.296283
aF1478791830.2118571
aF1478792444.2652569
aF1478792590.624217
aF1478792735.3722169
aF1478792881.9723139
aF1478793602.6610639
aF1478793748.505121
aF1478793895.470861
aF1478794049.0261331
aF1478794197.7184069
aF1478794345.4404869
aF1478794491.160733
aF1478794638.4741459
aF1478794785.1137719
aF1478794934.1269009
aF1478795081.707273
aF1478796032.5510011
aF1478796180.6096699
aF1478796325.1282229
aF1478796472.985749
aF1478796626.4497011
aF1478796786.1444459
aF1478796932.798599
aF1478797076.8351829
aF1478797221.5291741
aF1478797368.3938179
aF1478798421.2937109
aF1478798565.3267579
aF1478798714.6569021
aF1478798858.7906511
aF1478799005.6357429
aF1478799153.377291
aF1478799301.1989629
aF1478799445.9366441
aF1478799592.354753
aF1478800802.128931
aF1478800948.8637421
aF1478801097.417887
aF1478801243.457583
aF1478801389.367636
aF1478801533.467329
aF1478801679.344209
aF1478801825.2076721
aF1478801972.0865431
aF1478802118.821759
aF1478802266.202702
aF1478803230.8856981
aF1478803377.20733
aF1478803523.4262879
aF1478803674.4430921
aF1478803819.4816129
aF1478803965.980474
aF1478804115.606683
aF1478804262.0900609
aF1478804407.2063451
aF1478804555.276938
aF1478805630.381201
aF1478805777.111799
aF1478805925.9592161
aF1478806073.982245
aF1478806220.2037539
aF1478806367.357383
aF1478806512.859844
aF1478806663.635766
aF1478806808.0176611
aF1478806956.3730271
aF1478807102.456465
aF1478808002.399678
aF1478808148.8404551
aF1478808295.4549079
aF1478808439.9136989
aF1478808596.8052859
aF1478808742.05566
aF1478808886.442163
aF1478809033.499722
aF1478809179.1807001
aF1478809326.3284769
aF1478810428.07705
aF1478810574.512886
aF1478810718.956687
aF1478810866.2002311
aF1478811012.2552309
aF1478811159.5537059
aF1478811305.1949069
aF1478811452.170624
aF1478811599.732507
aF1478811748.5696299
aF1478812827.6641929
aF1478812975.4239199
aF1478813120.2081971
aF1478813268.0947211
aF1478813414.95526
aF1478813562.604743
aF1478813715.9981539
aF1478813863.9540241
aF1478814009.481725
aF1478815201.7692399
aF1478815347.890857
aF1478815491.9632089
aF1478815637.258889
aF1478815784.5243399
aF1478815930.706033
aF1478816079.974951
aF1478816226.157295
aF1478816374.324512
aF1478816521.630379
aF1478816669.2732799
aF1478817631.9924369
aF1478817777.810174
aF1478817924.954433
aF1478818071.6633241
aF1478818219.938221
aF1478818366.7043769
aF1478818513.6921489
aF1478818662.8097789
aF1478818809.093466
aF1478818953.8954411
aF1478820029.163156
aF1478820175.183449
aF1478820322.9862931
aF1478820471.850327
aF1478820616.631566
aF1478820763.420069
aF1478820913.4100361
aF1478821060.08938
aF1478821205.7643721
aF1478821354.224653
aF1478822402.1271341
aF1478822552.4934731
aF1478822701.0939009
aF1478822849.46524
aF1478822995.038898
aF1478823142.1281769
aF1478823290.9709671
aF1478823438.7088139
aF1478823585.9316061
aF1478823732.6760931
aF1478824827.588877
aF1478824974.855911
aF1478825252.3137541
aF1478825399.0525489
aF1478825547.137449
aF1478825692.5031829
aF1478825839.4623549
aF1478825986.0669329
aF1478826133.056191
aF1478826279.5603001
aF1478826425.4301331
aF1478826574.6820011
aF1478827229.272372
aF1478827374.7088659
aF1478827522.1619439
aF1478827668.2507739
aF1478827816.148231
aF1478827961.8476379
aF1478828108.760797
aF1478828253.5884631
aF1478828403.5232079
aF1478829147.9368739
aF1478829294.2614701
aF1478829550.3783219
aF1478829698.2101691
aF1478829843.462007
aF1478829990.365639
aF1478830136.5628979
aF1478830283.2908599
aF1478830430.2007489
aF1478830577.018065
aF1478830721.6337631
aI600
tRp184
sg16
I144
sg17
g13
((lp185
I29
aI29
aI29
aI15
aI29
aI29
aI29
aI29
aI28
aI15
aI29
aI29
aI29
aI18
aI29
aI29
aI29
aI29
aI25
aI29
aI29
aI29
aI29
aI18
aI29
aI29
aI29
aI29
aI28
aI29
aI29
aI29
aI29
aI20
aI29
aI29
aI29
aI29
aI29
aI29
aI28
aI30
aI29
aI20
aI29
aI29
aI29
aI31
aI29
aI29
aI29
aI29
aI29
aI23
aI14
aI32
aI29
aI29
aI28
aI16
aI30
aI29
aI29
aI29
aI29
aI29
aI29
aI29
aI29
aI6
aI29
aI29
aI29
aI29
aI29
aI29
aI29
aI29
aI29
aI4
aI29
aI29
aI29
aI29
aI29
aI28
aI29
aI25
aI29
aI15
aI29
aI29
aI29
aI29
aI29
aI29
aI29
aI24
aI29
aI27
aI29
aI28
aI29
aI28
aI29
aI29
aI29
aI13
aI29
aI27
aI29
aI29
aI29
aI28
aI29
aI29
aI29
aI29
aI1
aI29
aI29
aI29
aI29
aI21
aI29
aI29
aI29
aI7
aI29
aI28
aI30
aI31
aI29
aI29
aI29
aI29
aI29
aI29
aI4
aI29
aI29
aI29
aI29
aI30
aI32
aI28
aI29
aI29
aI7
aI29
aI29
aI29
aI29
aI29
aI29
aI29
aI29
aI27
aI29
aI29
aI29
aI29
aI28
aI29
aI29
aI29
aI29
aI29
aI7
aI29
aI29
aI29
aI29
aI29
aI29
aI29
aI29
aI29
aI19
aI29
aI29
aI29
aI29
aI29
aI29
aI29
aI29
aI29
aI29
aI5
aI29
aI29
aI28
aI29
aI31
aI28
aI29
aI29
aI29
aI26
aI29
aI28
aI29
aI29
aI29
aI29
aI29
aI29
aI29
aI27
aI29
aI29
aI29
aI29
aI29
aI28
aI31
aI29
aI21
aI29
aI28
aI29
aI29
aI28
aI30
aI29
aI29
aI29
aI29
aI12
aI29
aI29
aI29
aI29
aI29
aI29
aI29
aI29
aI29
aI21
aI29
aI29
aI29
aI29
aI29
aI29
aI29
aI29
aI29
aI20
aI29
aI30
aI29
aI29
aI28
aI29
aI29
aI29
aI29
aI21
aI29
aI9
aI29
aI27
aI29
aI29
aI27
aI27
aI29
aI28
aI28
aI4
aI28
aI29
aI29
aI28
aI28
aI29
aI26
aI29
aI22
aI29
aI3
aI29
aI28
aI29
aI28
aI28
aI28
aI29
aI28
aI10
aI600
tRp186
sg20
I0
sg21
I600
sg22
Nsbs(Vtmall_seckill
S'retry'
tp187
g5
(g6
g7
NtRp188
(dp189
g10
F1478517178.7238641
sg11
I600
sg12
g13
((lp190
F1478830828.551038
aF1478831125.0571499
aF1478831276.9526451
aF1478831443.227972
aF1478832054.1143429
aF1478832374.453295
aF1478832574.036622
aF1478833084.8698649
aF1478833294.3644781
aF1478833778.578408
aF1478833964.285471
aF1478834119.947329
aF1478834630.4582889
aF1478834886.62094
aF1478835127.300611
aF1478835605.3980169
aF1478835765.5602281
aF1478835920.3405421
aF1478836463.5938699
aF1478836717.9442041
aF1478836967.7572351
aF1478837422.570848
aF1478838298.6338389
aF1478838772.0812211
aF1478842342.8682859
aF1478844176.7570989
aF1478848062.6128321
aI600
tRp191
sg16
I144
sg17
g13
((lp192
I3
aI5
aI10
aI11
aI9
aI1
aI1
aI1
aI12
aI10
aI12
aI2
aI2
aI6
aI10
aI12
aI6
aI2
aI3
aI3
aI2
aI8
aI1
aI12
aI2
aI1
aI2
aI600
tRp193
sg20
I0
sg21
I600
sg22
Nsbs(Vtmall_miao
g39
tp194
g5
(g6
g7
NtRp195
(dp196
g10
F1478836973.472497
sg11
F81.582699416412254
sg12
g13
((lp197
F1478836973.472497
aI600
tRp198
sg16
I144
sg17
g13
((lp199
I8
aI600
tRp200
sg20
I0
sg21
I600
sg22
Nsbs(Vtmall_dangdang
g39
tp201
g5
(g6
g7
NtRp202
(dp203
g10
F1478802258.3121641
sg11
F322.66020047167939
sg12
g13
((lp204
F1478802258.3121641
aF1478802899.122606
aF1478803416.686383
aF1478805149.8517139
aF1478805414.1099451
aF1478826791.8933129
aF1478830391.1852629
aF1478833973.9050519
aF1478840879.3791029
aF1478841150.240813
aF1478844792.1348929
aI600
tRp205
sg16
I144
sg17
g13
((lp206
I2
aI2
aI2
aI1
aI2
aI1
aI1
aI1
aI1
aI1
aI1
aI600
tRp207
sg20
I0
sg21
I600
sg22
Nsbs(Vtmall_index
g39
tp208
g5
(g6
g7
NtRp209
(dp210
g10
F1478747691.748817
sg11
I600
sg12
g13
((lp211
F1478766653.9046919
aF1478769146.156276
aF1478823146.6477151
aF1478825014.4075689
aF1478825446.839741
aF1478825859.8542869
aF1478826018.4159961
aF1478826482.9569221
aF1478827341.69333
aF1478827744.672044
aF1478827902.9428051
aF1478828132.5763869
aF1478828353.6236041
aF1478830023.3285489
aF1478830343.8220639
aI600
tRp212
sg16
I144
sg17
g13
((lp213
I4
aI1
aI1
aI1
aI2
aI2
aI2
aI2
aI1
aI1
aI1
aI2
aI1
aI1
aI1
aI600
tRp214
sg20
I0
sg21
I600
sg22
Nsbs(Vtmall_shops
g31
tp215
g5
(g6
g7
NtRp216
(dp217
g10
F1478765711.824276
sg11
F576.45525586108363
sg12
g13
((lp218
F1478765711.824276
aI600
tRp219
sg16
I144
sg17
g13
((lp220
I2
aI600
tRp221
sg20
I0
sg21
I600
sg22
Nsbs.