(dp1
(S'tmall_shop'
p2
S'pending'
p3
tp4
ccopy_reg
_reconstructor
p5
(cpyspider.libs.counter
TimebaseAverageWindowCounter
p6
c__builtin__
object
p7
NtRp8
(dp9
S'_first_data_time'
p10
F1478598294.3289299
sS'window_size'
p11
F0.074995934963226318
sS'times'
p12
ccollections
deque
p13
((lI60
tRp14
sS'window_interval'
p15
I60
sS'values'
p16
g13
((lI60
tRp17
sS'cache_value'
p18
I103
sS'max_window_size'
p19
I60
sS'cache_start'
p20
F1478598294.3289299
sbs(Vtmall_seckill
S'retry'
p21
tp22
g5
(g6
g7
NtRp23
(dp24
g10
F1478577826.100179
sg11
I60
sg12
g13
((lp25
F1478594718.3158109
aI60
tRp26
sg15
I60
sg16
g13
((lp27
I4
aI60
tRp28
sg18
I0
sg19
I60
sg20
Nsbs(Vtmall_url_shop
p29
S'success'
p30
tp31
g5
(g6
g7
NtRp32
(dp33
g10
F1478595849.7155471
sg11
F40.81855141719182
sg12
g13
((lp34
F1478595849.7155471
aF1478595910.848007
aF1478595974.7778821
aF1478596035.7952869
aF1478596115.9046569
aF1478596183.9369421
aF1478596244.2179141
aF1478596306.275908
aF1478596374.1455071
aF1478596434.8251691
aF1478596496.2445879
aF1478596557.4077051
aF1478596618.159375
aF1478596761.9402151
aF1478596822.9292419
aF1478596883.1171241
aF1478596949.7036331
aF1478597024.2359231
aF1478597085.2934189
aF1478597147.146394
aF1478597207.619303
aF1478597267.626596
aF1478597333.473484
aF1478597414.273139
aF1478597475.7941301
aF1478597535.8332219
aF1478597596.309305
aF1478597666.493356
aF1478597727.562398
aF1478597788.1045411
aF1478597848.4177201
aF1478597911.2195089
aF1478597993.98153
aF1478598054.9010301
aF1478598115.814291
aF1478598177.4249029
aI60
tRp35
sg15
I60
sg16
g13
((lp36
I11
aI12
aI13
aI7
aI9
aI3
aI16
aI8
aI9
aI9
aI7
aI8
aI9
aI6
aI13
aI12
aI12
aI12
aI11
aI9
aI9
aI10
aI6
aI12
aI12
aI12
aI12
aI14
aI9
aI11
aI10
aI13
aI10
aI12
aI12
aI11
aI60
tRp37
sg18
I8
sg19
I60
sg20
F1478598245.365207
sbs(Vtmall_url_shop
p38
g21
tp39
g5
(g6
g7
NtRp40
(dp41
g10
F1478596079.0644269
sg11
F36.996069633960722
sg12
g13
((lp42
F1478596079.0644269
aF1478596166.479759
aF1478596356.7790899
aF1478596431.5623069
aF1478596497.170543
aF1478596575.3554909
aF1478596647.096292
aF1478596710.988461
aF1478596781.415997
aF1478597065.9139149
aF1478597191.7308581
aF1478597271.567704
aF1478597403.0697131
aF1478597776.95104
aF1478597896.8292799
aF1478598002.8872049
aF1478598205.1617551
aI60
tRp43
sg15
I60
sg16
g13
((lp44
I6
aI12
aI1
aI3
aI2
aI4
aI3
aI9
aI23
aI1
aI1
aI3
aI19
aI1
aI1
aI10
aI2
aI60
tRp45
sg18
I0
sg19
I60
sg20
Nsbs(Vtmall_url_shop
p46
g3
tp47
g5
(g6
g7
NtRp48
(dp49
g10
F1478595850.036041
sg11
F40.813209633032479
sg12
g13
((lp50
F1478595850.036041
aF1478596443.327625
aF1478597115.9965489
aF1478597727.7927151
aI60
tRp51
sg15
I60
sg16
g13
((lp52
I100
aI96
aI90
aI97
aI60
tRp53
sg18
I0
sg19
I60
sg20
Nsbs(Vtmall_seckill
g3
tp54
g5
(g6
g7
NtRp55
(dp56
g10
F1478577806.6033151
sg11
I60
sg12
g13
((lp57
F1478594704.539989
aF1478594764.6258559
aI60
tRp58
sg15
I60
sg16
g13
((lp59
I11
aI4
aI60
tRp60
sg18
I69
sg19
I60
sg20
F1478598292.8610699
sbs(Vtmall_shop
p61
g30
tp62
g5
(g6
g7
NtRp63
(dp64
g10
F1478598295.533134
sg11
F0.054925632476806638
sg12
g13
((lI60
tRp65
sg15
I60
sg16
g13
((lI60
tRp66
sg18
I2
sg19
I60
sg20
F1478598295.533134
sbs(Vtmall_seckill
g30
tp67
g5
(g6
g7
NtRp68
(dp69
g10
F1478577806.5977149
sg11
I60
sg12
g13
((lp70
F1478594764.2149379
aI60
tRp71
sg15
I60
sg16
g13
((lp72
I6
aI60
tRp73
sg18
I4
sg19
I60
sg20
F1478598292.834702
sbs.