(dp1
(Vtmall_seckill
p2
S'success'
p3
tp4
ccopy_reg
_reconstructor
p5
(cpyspider.libs.counter
TotalCounter
p6
c__builtin__
object
p7
NtRp8
(dp9
S'cnt'
p10
I257
sbs(Vtmall_url_shop
p11
S'pending'
p12
tp13
g5
(g6
g7
NtRp14
(dp15
g10
I1
sbs(Vtmall_seckill
p16
S'failed'
p17
tp18
g5
(g6
g7
NtRp19
(dp20
g10
I1
sbs(Vtmall_seckill
g12
tp21
g5
(g6
g7
NtRp22
(dp23
g10
I119
sbs(Vtmall_url_shop
S'success'
tp24
g5
(g6
g7
NtRp25
(dp26
g10
I1935
sbs.