(dp1
(S'tmall_url_shop'
S'pending'
tp2
ccopy_reg
_reconstructor
p3
(cpyspider.libs.counter
TimebaseAverageWindowCounter
p4
c__builtin__
object
p5
NtRp6
(dp7
S'_first_data_time'
p8
F1478445069.2269919
sS'window_size'
p9
F467.92137335571977
sS'times'
p10
ccollections
deque
p11
((lp12
F1478445069.2269919
aF1478455492.5520029
aF1478456210.5427599
aF1478456483.845058
aF1478456716.7442169
aF1478456949.6433001
aF1478457182.4600389
aF1478457415.459703
aF1478457648.377167
aF1478457881.321641
aF1478458114.240556
aF1478458347.182936
aF1478458579.9700639
aF1478458812.9907539
aF1478459045.88533
aF1478459278.792181
aF1478459511.688319
aF1478459744.5960701
aF1478459977.4992011
aF1478460210.4364491
aF1478460443.325578
aF1478460676.260071
aF1478460909.1535299
aF1478461142.04373
aF1478461374.946846
aF1478461607.871042
aF1478461840.794517
aF1478462073.818646
aF1478462306.7140379
aF1478462539.6535411
aF1478462772.5619831
aF1478463005.4798081
aF1478463238.3146269
aF1478463471.329185
aF1478463704.2415881
aF1478463937.1451261
aF1478464170.060638
aF1478464402.953882
aF1478464635.8831179
aF1478464868.798547
aF1478465101.6961501
aF1478465334.6100979
aF1478465567.5766261
aF1478465800.4956391
aF1478466033.4309461
aF1478466266.3641729
aF1478466499.2589891
aF1478466732.18063
aF1478466965.0878601
aF1478467198.0451739
aF1478467430.972785
aF1478467663.879292
aF1478467896.8088169
aF1478468129.745748
aF1478468362.652437
aF1478468595.579505
aF1478468828.4696469
aF1478469061.3997209
aF1478469294.3472109
aF1478469527.2518229
aF1478469760.1929929
aF1478469993.1126261
aF1478470226.057673
aF1478470458.9772899
aF1478470691.8150821
aF1478470924.8558359
aF1478471157.789032
aF1478471390.7323899
aF1478471623.6607389
aF1478471856.585223
aF1478472089.494473
aF1478472322.4125481
aF1478472555.355294
aF1478478628.094372
aF1478478846.884661
aF1478479067.2484021
aF1478479303.7415249
aF1478479450.881001
aF1478479747.9382501
aF1478479970.3836851
aF1478480127.0932939
aF1478480278.4948931
aF1478480440.004988
aF1478480591.180711
aF1478480742.474272
aI600
tRp13
sS'window_interval'
p14
I144
sS'values'
p15
g11
((lp16
I1936
aI141
aI53
aI45
aI45
aI45
aI45
aI45
aI45
aI45
aI45
aI45
aI45
aI45
aI45
aI45
aI45
aI45
aI45
aI45
aI45
aI45
aI45
aI45
aI45
aI45
aI45
aI45
aI45
aI45
aI45
aI45
aI45
aI45
aI45
aI45
aI45
aI45
aI45
aI45
aI45
aI45
aI45
aI45
aI45
aI45
aI45
aI45
aI45
aI45
aI45
aI45
aI45
aI45
aI45
aI45
aI45
aI45
aI45
aI45
aI45
aI45
aI45
aI45
aI45
aI45
aI45
aI45
aI45
aI45
aI45
aI45
aI45
aI46
aI2
aI45
aI1
aI45
aI43
aI30
aI5
aI6
aI5
aI5
aI2
aI600
tRp17
sS'cache_value'
p18
I0
sS'max_window_size'
p19
I600
sS'cache_start'
p20
Nsbs(Vtmall_url_shop
S'success'
tp21
g3
(g4
g5
NtRp22
(dp23
g8
F1478445069.6058531
sg9
F467.91874223616389
sg10
g11
((lp24
F1478445069.6058531
aF1478445813.2607191
aF1478445964.3781321
aF1478446116.2871261
aF1478446263.9680851
aF1478446410.737057
aF1478446558.9676521
aF1478446703.0399489
aF1478446851.575964
aF1478447003.593111
aF1478447150.3262329
aF1478447298.7021241
aF1478447443.027714
aF1478447591.7510009
aF1478447738.435703
aF1478447906.3477769
aF1478448050.4481361
aF1478448220.089452
aF1478448374.439436
aF1478448525.236376
aF1478448671.5582249
aF1478448817.7826829
aF1478448964.1751039
aF1478449114.7036469
aF1478449261.831357
aF1478449406.03792
aF1478449552.4545231
aF1478449699.6949351
aF1478449849.4793079
aF1478450001.3128459
aF1478450154.576643
aF1478450300.7207141
aF1478450447.4200461
aF1478450593.0710821
aF1478450738.1727581
aF1478450889.97068
aF1478451036.3067181
aF1478451184.734653
aF1478451337.419652
aF1478451492.6308081
aF1478451638.9828041
aF1478451786.6621909
aF1478451934.718204
aF1478452080.322325
aF1478452225.854666
aF1478452373.0295391
aF1478452523.5484619
aF1478452670.811466
aF1478452816.937206
aF1478452966.0986099
aF1478453113.3717289
aF1478453257.7803349
aF1478453403.5462921
aF1478453547.8653319
aF1478453692.194649
aF1478453837.1550591
aF1478453981.685329
aF1478454126.009306
aF1478454272.9112451
aF1478454419.5314209
aF1478454574.620517
aF1478454721.103008
aF1478454869.5438261
aF1478455018.155117
aF1478455169.954572
aF1478455314.9849701
aF1478455461.9602051
aF1478455610.456517
aF1478455760.3262601
aF1478455905.2020459
aF1478456054.1964321
aF1478456199.4080751
aF1478456343.9969029
aF1478456491.9465239
aF1478456637.5727341
aF1478456784.3840461
aF1478456932.335717
aF1478457078.1479909
aF1478457225.097482
aF1478457373.7411749
aF1478457518.5696449
aF1478457665.4936509
aF1478457814.5861161
aF1478457959.201031
aF1478458106.0411689
aF1478458254.9136059
aF1478458399.8380539
aF1478458546.4566979
aF1478458693.3873529
aF1478458840.2334199
aF1478458989.064656
aF1478459135.093328
aF1478459285.6746991
aF1478459432.8250611
aF1478459579.631197
aF1478459727.3767681
aF1478459873.8932481
aF1478460019.928627
aF1478460166.766891
aF1478460313.6228831
aF1478460460.436033
aF1478460607.383857
aF1478460754.5337939
aF1478460900.948194
aF1478461047.7759969
aF1478461196.3224199
aF1478461341.5147109
aF1478461488.367723
aF1478461636.324156
aF1478461781.936336
aF1478461928.7976041
aF1478462073.8139169
aF1478462223.1558471
aF1478462369.600044
aF1478462516.246367
aF1478462665.1440139
aF1478462809.936173
aF1478462956.7673111
aF1478463100.981142
aF1478463245.498924
aF1478463392.22575
aF1478463539.9682381
aF1478463686.6223171
aF1478463834.3523231
aF1478463979.482312
aF1478464126.3120699
aF1478464273.324681
aF1478464422.2037899
aF1478464566.9157951
aF1478464713.762048
aF1478464860.5824659
aF1478465009.2403679
aF1478465155.360523
aF1478465301.0837829
aF1478465447.9586539
aF1478465594.820812
aF1478465741.5554149
aF1478465888.4904361
aF1478466033.4279289
aF1478466179.1651399
aF1478466323.988369
aF1478466470.9017229
aF1478466617.653527
aF1478466764.5005031
aF1478466911.813386
aF1478467058.071923
aF1478467207.1506879
aF1478467351.7679429
aF1478467500.9457381
aF1478467645.5309589
aF1478467792.8882251
aF1478467940.5610681
aF1478468086.101685
aF1478468232.939379
aF1478468379.677331
aF1478468526.4999421
aF1478468674.870014
aF1478468820.2617371
aF1478468967.212023
aF1478469114.1641359
aF1478469260.8080881
aF1478469407.5599229
aF1478469554.403971
aF1478469701.9535761
aF1478469848.065495
aF1478469993.109865
aF1478470137.1241441
aF1478470285.8111989
aF1478470430.416512
aF1478470579.3877709
aF1478470724.734391
aF1478470872.6814499
aF1478471017.819319
aF1478471164.6757791
aF1478471311.5235989
aF1478471458.9672151
aF1478471605.30074
aF1478471752.075511
aF1478471899.004158
aF1478472045.8379409
aF1478472194.600929
aF1478472339.531445
aF1478472486.481535
aF1478472633.8217659
aF1478478629.3047869
aF1478478779.345367
aF1478478959.592062
aF1478479103.8142941
aF1478479305.7591169
aF1478479451.8910561
aF1478479598.385355
aF1478479744.890898
aF1478479891.478653
aF1478480038.009897
aF1478480187.6334829
aF1478480339.029958
aF1478480500.3472431
aF1478480651.7634089
aI600
tRp25
sg14
I144
sg15
g11
((lp26
I20
aI30
aI30
aI29
aI29
aI29
aI29
aI28
aI31
aI30
aI29
aI27
aI31
aI27
aI30
aI26
aI36
aI32
aI28
aI34
aI28
aI28
aI31
aI28
aI31
aI27
aI31
aI29
aI30
aI30
aI29
aI29
aI30
aI28
aI30
aI28
aI30
aI29
aI31
aI30
aI29
aI30
aI29
aI29
aI29
aI28
aI31
aI28
aI30
aI28
aI30
aI29
aI26
aI31
aI28
aI29
aI28
aI30
aI25
aI32
aI31
aI29
aI28
aI31
aI30
aI27
aI32
aI29
aI28
aI30
aI29
aI29
aI29
aI29
aI29
aI29
aI29
aI29
aI29
aI29
aI29
aI29
aI29
aI29
aI29
aI29
aI29
aI29
aI29
aI29
aI29
aI30
aI29
aI28
aI30
aI29
aI29
aI29
aI29
aI29
aI29
aI29
aI29
aI29
aI29
aI29
aI29
aI29
aI29
aI29
aI29
aI29
aI29
aI29
aI29
aI29
aI29
aI28
aI29
aI29
aI29
aI29
aI29
aI29
aI29
aI29
aI29
aI29
aI29
aI29
aI29
aI29
aI29
aI29
aI29
aI29
aI29
aI29
aI28
aI29
aI29
aI29
aI29
aI29
aI29
aI29
aI29
aI29
aI29
aI29
aI29
aI29
aI29
aI29
aI29
aI29
aI29
aI29
aI29
aI29
aI29
aI29
aI29
aI29
aI29
aI28
aI29
aI29
aI29
aI29
aI29
aI29
aI29
aI29
aI29
aI29
aI29
aI29
aI29
aI29
aI29
aI29
aI29
aI11
aI23
aI26
aI22
aI4
aI28
aI29
aI29
aI29
aI29
aI22
aI10
aI12
aI10
aI10
aI600
tRp27
sg18
I0
sg19
I600
sg20
Nsbs.