(dp1
(Vtmall_seckill
S'success'
tp2
ccopy_reg
_reconstructor
p3
(cpyspider.libs.counter
TotalCounter
p4
c__builtin__
object
p5
NtRp6
(dp7
S'cnt'
p8
I345
sbs(Vtmall_url_shop
S'pending'
tp9
g3
(g4
g5
NtRp10
(dp11
g8
I98
sbs(Vtmall_seckill
S'pending'
p12
tp13
g3
(g4
g5
NtRp14
(dp15
g8
I60
sbs(Vtmall_url_shop
S'success'
tp16
g3
(g4
g5
NtRp17
(dp18
g8
I2109
sbs.