(dp1
(Vtmall_url_shop
p2
S'retry'
p3
tp4
ccopy_reg
_reconstructor
p5
(cpyspider.libs.counter
TimebaseAverageWindowCounter
p6
c__builtin__
object
p7
NtRp8
(dp9
S'_first_data_time'
p10
F1478596079.064482
sS'window_size'
p11
F7.2650310695171356
sS'times'
p12
ccollections
deque
p13
((lp14
F1478596079.064482
aF1478596356.7790959
aF1478596575.3555329
aF1478596720.6702471
aI600
tRp15
sS'window_interval'
p16
I144
sS'values'
p17
g13
((lp18
I18
aI6
aI10
aI29
aI600
tRp19
sS'cache_value'
p20
I1
sS'max_window_size'
p21
I600
sS'cache_start'
p22
F1478597065.9139211
sbs(Vtmall_url_shop
p23
S'success'
p24
tp25
g5
(g6
g7
NtRp26
(dp27
g10
F1478595849.7155581
sg11
F8.8577321519454326
sg12
g13
((lp28
F1478595849.7155581
aF1478596001.4072521
aF1478596154.937475
aF1478596300.4009171
aF1478596446.431145
aF1478596600.4626579
aF1478596761.940244
aF1478596913.050144
aI600
tRp29
sg16
I144
sg17
g13
((lp30
I27
aI21
aI21
aI21
aI18
aI13
aI24
aI26
aI600
tRp31
sg20
I18
sg21
I600
sg22
F1478597062.760694
sbs(Vtmall_seckill
S'retry'
tp32
g5
(g6
g7
NtRp33
(dp34
g10
F1478517178.7238641
sg11
F555.1840637293127
sg12
g13
((lp35
F1478517178.7238641
aF1478517671.494117
aF1478518426.77983
aF1478518661.789851
aF1478518814.5693769
aF1478519095.342447
aF1478519262.628345
aF1478519415.417285
aF1478519603.015353
aF1478519872.002645
aF1478520031.6521389
aF1478520196.170994
aF1478520440.0745289
aF1478520585.9912879
aF1478520732.0088911
aF1478520924.7670889
aF1478521090.705687
aF1478521250.327172
aF1478521834.5990219
aF1478521983.0707381
aF1478522210.80972
aF1478522357.096112
aF1478522574.84092
aF1478522746.545366
aF1478522940.0761681
aF1478523150.8927989
aF1478523303.3032539
aF1478523469.5192621
aF1478523732.512099
aF1478523889.354928
aF1478524101.359201
aF1478524343.6780009
aF1478524492.6673839
aF1478524683.3384531
aF1478524829.121619
aF1478524991.5403371
aF1478533909.7806489
aF1478534329.3187671
aF1478534505.9159169
aF1478534783.9571919
aF1478535051.9722149
aF1478535315.0235341
aF1478535597.9982071
aF1478535896.43189
aF1478536169.4820149
aF1478536351.5185871
aF1478536503.146282
aF1478536786.9256239
aF1478536958.834085
aF1478537140.8307741
aF1478537413.811512
aF1478537565.676513
aF1478537719.0963171
aF1478538106.520103
aF1478538253.189872
aF1478549149.2684109
aF1478564603.170419
aF1478564864.0970039
aF1478565053.029794
aF1478565229.806664
aF1478565381.392091
aF1478565862.8504801
aF1478566019.69838
aF1478566168.0450161
aF1478566434.1957159
aF1478566590.868762
aF1478566747.6517229
aF1478566909.0720739
aF1478567202.817852
aF1478567384.7677691
aF1478567545.931006
aF1478567748.8840339
aF1478567915.872575
aF1478568061.878031
aF1478568280.080066
aF1478568507.5318069
aF1478568707.112606
aF1478568922.325145
aF1478569124.9605401
aF1478569271.2614911
aF1478569483.5194449
aF1478569650.6674941
aF1478569893.6312809
aF1478570060.24739
aF1478570207.189811
aF1478570384.454035
aF1478570531.4283559
aF1478570701.879339
aF1478570850.8660009
aF1478571092.651962
aF1478571279.406322
aF1478571438.064326
aF1478571591.8346779
aF1478571819.2854109
aF1478572091.2848101
aF1478572246.951031
aF1478572418.5652561
aF1478572598.52086
aF1478572742.5763011
aF1478577826.1002009
aF1478578030.9058509
aF1478578439.7019451
aF1478578779.7312219
aF1478579078.119498
aF1478579463.526624
aF1478579610.600374
aF1478579793.3166311
aF1478579957.1441829
aF1478580107.8602231
aF1478580301.9544539
aF1478580467.9960649
aF1478580615.1349249
aF1478580828.069314
aF1478581000.7323451
aF1478581152.5907819
aF1478581320.2381859
aF1478581624.9824021
aF1478581852.205868
aF1478582085.358047
aF1478582237.6405289
aF1478582440.653733
aF1478582696.245378
aF1478582861.3639801
aF1478583006.5894411
aF1478583353.622273
aF1478583525.402905
aF1478583743.7138441
aF1478583987.2631381
aF1478584159.440963
aF1478584321.8471589
aF1478584494.1370449
aF1478584651.600857
aF1478584814.4523101
aF1478584966.1961081
aF1478585443.052773
aF1478585590.2294061
aF1478585808.299536
aF1478586030.9330139
aF1478586182.7232411
aF1478586339.45189
aF1478586536.6836779
aF1478586688.184628
aF1478586880.1437571
aF1478587072.233391
aF1478587228.9407909
aF1478587375.6349449
aF1478587547.5534329
aF1478587734.630105
aF1478587977.5839231
aF1478588144.6433489
aF1478588291.5956199
aF1478588443.4028361
aF1478588615.98949
aF1478588787.5479779
aF1478588937.494132
aF1478589091.435344
aF1478589237.776165
aF1478589415.022012
aF1478589632.3553891
aF1478589815.247822
aF1478590007.342092
aF1478590204.632535
aF1478590382.6514051
aF1478590569.643173
aF1478590721.5295169
aF1478590873.4579401
aF1478591040.4472239
aF1478591278.571377
aF1478591428.511312
aF1478591581.9142139
aF1478591728.5059209
aF1478591885.4284091
aF1478592037.4267859
aF1478592194.297235
aF1478592423.042377
aF1478592579.9336219
aF1478592725.4415381
aF1478592884.107964
aF1478593035.6063271
aF1478593253.2982619
aF1478593486.643775
aF1478593675.1907439
aF1478593834.417628
aF1478594008.257977
aF1478594176.6620369
aF1478594333.558778
aF1478594481.5688269
aF1478594627.42045
aI600
tRp36
sg16
I144
sg17
g13
((lp37
I1
aI2
aI1
aI1
aI2
aI5
aI6
aI5
aI7
aI9
aI2
aI2
aI5
aI27
aI14
aI4
aI26
aI20
aI13
aI2
aI1
aI6
aI1
aI3
aI6
aI2
aI3
aI4
aI11
aI9
aI2
aI7
aI5
aI2
aI2
aI3
aI5
aI4
aI3
aI2
aI7
aI4
aI4
aI3
aI10
aI12
aI8
aI3
aI3
aI3
aI3
aI6
aI7
aI3
aI9
aI1
aI3
aI2
aI2
aI5
aI1
aI8
aI7
aI3
aI3
aI8
aI5
aI7
aI3
aI6
aI1
aI2
aI7
aI8
aI4
aI5
aI1
aI1
aI4
aI8
aI5
aI3
aI2
aI4
aI7
aI11
aI12
aI1
aI9
aI9
aI2
aI2
aI1
aI4
aI7
aI20
aI9
aI1
aI9
aI3
aI1
aI4
aI4
aI5
aI1
aI5
aI6
aI6
aI4
aI12
aI11
aI4
aI12
aI11
aI14
aI5
aI4
aI3
aI2
aI5
aI3
aI5
aI6
aI5
aI6
aI6
aI3
aI2
aI2
aI5
aI8
aI10
aI13
aI3
aI4
aI5
aI4
aI12
aI9
aI6
aI6
aI11
aI10
aI9
aI13
aI7
aI5
aI5
aI4
aI4
aI2
aI5
aI7
aI7
aI8
aI4
aI4
aI1
aI5
aI6
aI2
aI4
aI1
aI5
aI4
aI2
aI4
aI8
aI12
aI6
aI3
aI3
aI1
aI1
aI3
aI2
aI6
aI5
aI5
aI3
aI4
aI9
aI10
aI3
aI10
aI8
aI11
aI7
aI600
tRp38
sg20
I0
sg21
I600
sg22
Nsbs(Vtmall_url_shop
p39
S'pending'
p40
tp41
g5
(g6
g7
NtRp42
(dp43
g10
F1478595850.036052
sg11
F8.8555064102013912
sg12
g13
((lp44
F1478595850.036052
aF1478596443.32763
aI600
tRp45
sg16
I144
sg17
g13
((lp46
I100
aI96
aI600
tRp47
sg20
I90
sg21
I600
sg22
F1478597115.9965539
sbs(Vtmall_seckill
S'failed'
tp48
g5
(g6
g7
NtRp49
(dp50
g10
F1478520349.398958
sg11
F533.1654866039753
sg12
g13
((lp51
F1478520349.398958
aF1478523235.9257431
aF1478534049.141969
aF1478535278.5137279
aF1478538149.8916759
aF1478564628.9938371
aF1478567396.488301
aF1478569184.627085
aF1478571564.195967
aI600
tRp52
sg16
I144
sg17
g13
((lp53
I1
aI1
aI1
aI1
aI1
aI1
aI1
aI1
aI1
aI600
tRp54
sg20
I0
sg21
I600
sg22
Nsbs(S'tmall_seckill'
S'pending'
tp55
g5
(g6
g7
NtRp56
(dp57
g10
F1478517120.347029
sg11
F555.58945874373114
sg12
g13
((lp58
F1478517120.347029
aF1478517303.416059
aF1478517457.8479249
aF1478517635.9411681
aF1478517805.912914
aF1478518018.7894211
aF1478518164.6054759
aF1478518313.0421879
aF1478518457.6462669
aF1478518606.0554571
aF1478518770.884896
aF1478518939.9266601
aF1478519085.8232801
aF1478519233.480679
aF1478519390.9175069
aF1478519574.9604959
aF1478519725.8056431
aF1478519882.9218509
aF1478520031.660136
aF1478520195.6393931
aF1478520344.9242239
aF1478520490.4675951
aF1478520763.700963
aF1478520910.240459
aF1478521066.5081329
aF1478521213.74577
aF1478521888.1657071
aF1478522053.90272
aF1478522203.9475811
aF1478522417.8360541
aF1478522566.6629801
aF1478522790.7092271
aF1478522980.642096
aF1478523128.3490491
aF1478523274.1707821
aF1478523419.2657311
aF1478523570.5258679
aF1478523715.6563361
aF1478523866.7368879
aF1478524022.9633529
aF1478524168.469615
aF1478524330.835279
aF1478524486.0900769
aF1478524640.256295
aF1478524799.6111979
aF1478524948.6978581
aF1478534033.3800399
aF1478534199.0890369
aF1478534406.665134
aF1478534560.123353
aF1478534725.2580719
aF1478534910.7445769
aF1478535061.4606049
aF1478535222.9316931
aF1478535367.7819691
aF1478535512.810632
aF1478535664.644465
aF1478535815.7095661
aF1478535967.896558
aF1478536113.974371
aF1478536262.2620101
aF1478536427.271544
aF1478536575.3166189
aF1478536723.633991
aF1478536868.956692
aF1478537014.5485201
aF1478537166.100563
aF1478537318.2756989
aF1478537464.413554
aF1478537621.612675
aF1478537777.934602
aF1478537926.3202391
aF1478538082.4478259
aF1478538304.2542861
aF1478564620.276947
aF1478564789.1327231
aF1478564947.772285
aF1478565098.5258219
aF1478565247.6270239
aF1478565883.3025119
aF1478566047.711097
aF1478566191.8477459
aF1478566348.7006581
aF1478566532.0471079
aF1478566817.8070791
aF1478566975.7756979
aF1478567126.6650751
aF1478567273.244616
aF1478567420.9478099
aF1478567574.1021571
aF1478567718.4169669
aF1478567868.718049
aF1478568030.385318
aF1478568178.8016241
aF1478568341.551528
aF1478568497.8995719
aF1478568643.0654299
aF1478568797.7313399
aF1478568942.9744749
aF1478569088.978606
aF1478569235.0447471
aF1478569384.8301871
aF1478569529.471909
aF1478569676.4612391
aF1478569835.6739841
aF1478570007.7986381
aF1478570163.5428801
aF1478570308.5829611
aF1478570481.577363
aF1478570658.964355
aF1478570824.839349
aF1478570978.301523
aF1478571122.7317851
aF1478571270.3630791
aF1478571438.0691719
aF1478571583.5523219
aF1478571740.1853421
aF1478571886.8062699
aF1478572030.8538461
aF1478572178.3237901
aF1478572337.510139
aF1478572485.925431
aF1478572653.050621
aF1478577806.603322
aF1478577985.4579301
aF1478578165.0133209
aF1478578309.1494229
aF1478578490.8579371
aF1478578670.5580981
aF1478578830.336796
aF1478579019.3928089
aF1478579165.0037019
aF1478579311.8618791
aF1478579456.8702841
aF1478579642.168205
aF1478579839.72105
aF1478579986.5633521
aF1478580140.0048909
aF1478580289.9086311
aF1478580444.8096139
aF1478580603.6800621
aF1478580789.0236249
aF1478580955.5107789
aF1478581111.441448
aF1478581296.6317971
aF1478581456.9306409
aF1478581617.492259
aF1478581778.2971649
aF1478581948.7782421
aF1478582098.961179
aF1478582267.864574
aF1478582415.082298
aF1478582559.374244
aF1478582733.3237469
aF1478582899.6188941
aF1478583059.9562311
aF1478583223.2866831
aF1478583401.4005799
aF1478583568.0367401
aF1478583719.627506
aF1478583878.5505631
aF1478584031.8488719
aF1478584180.2584479
aF1478584347.1505549
aF1478584492.203357
aF1478584638.445539
aF1478584793.9137771
aF1478584941.2587831
aF1478585088.833569
aF1478585243.9451499
aF1478585405.262619
aF1478585570.6016159
aF1478585729.488359
aF1478585875.603965
aF1478586067.731813
aF1478586214.0090311
aF1478586361.000114
aF1478586506.9701419
aF1478586674.9244211
aF1478586837.443783
aF1478586981.7074399
aF1478587134.886786
aF1478587281.347595
aF1478587428.041472
aF1478587591.675663
aF1478587741.4091041
aF1478587887.966886
aF1478588049.121063
aF1478588205.5408001
aF1478588349.796355
aF1478588502.1983111
aF1478588646.6522479
aF1478588802.6722219
aF1478588949.7798259
aF1478589112.10762
aF1478589296.6161871
aF1478589440.770236
aF1478589585.9767561
aF1478589761.7109179
aF1478589962.029604
aF1478590109.612808
aF1478590254.1392231
aF1478590400.0356381
aF1478590550.9477789
aF1478590711.607877
aF1478590857.2811201
aF1478591005.256573
aF1478591158.644398
aF1478591304.585125
aF1478591451.46225
aF1478591599.049227
aF1478591759.2764699
aF1478591907.8786559
aF1478592053.4792781
aF1478592213.4555991
aF1478592404.077908
aF1478592551.5528209
aF1478592760.6324129
aF1478592916.0594389
aF1478593075.2044139
aF1478593232.168942
aF1478593377.4919319
aF1478593524.7525179
aF1478593674.6855919
aF1478593834.427906
aF1478594024.385762
aF1478594181.540663
aF1478594346.8987391
aF1478594493.4141519
aF1478594650.3800311
aI600
tRp59
sg16
I144
sg17
g13
((lp60
I151
aI25
aI18
aI18
aI15
aI22
aI15
aI13
aI23
aI20
aI29
aI22
aI19
aI38
aI19
aI21
aI50
aI10
aI34
aI21
aI19
aI24
aI46
aI25
aI3
aI2
aI127
aI27
aI36
aI18
aI12
aI9
aI9
aI12
aI18
aI21
aI30
aI21
aI27
aI32
aI16
aI22
aI20
aI60
aI32
aI21
aI88
aI12
aI41
aI14
aI24
aI25
aI9
aI24
aI28
aI19
aI11
aI17
aI29
aI37
aI18
aI35
aI26
aI26
aI19
aI13
aI33
aI50
aI21
aI25
aI32
aI30
aI12
aI9
aI145
aI16
aI15
aI21
aI7
aI37
aI19
aI24
aI34
aI20
aI11
aI15
aI25
aI28
aI30
aI24
aI16
aI22
aI18
aI42
aI26
aI34
aI20
aI24
aI14
aI25
aI35
aI29
aI38
aI26
aI41
aI26
aI6
aI37
aI14
aI22
aI31
aI19
aI41
aI27
aI27
aI13
aI13
aI23
aI19
aI14
aI49
aI14
aI18
aI122
aI20
aI21
aI20
aI15
aI12
aI10
aI21
aI33
aI23
aI25
aI25
aI19
aI29
aI24
aI36
aI10
aI51
aI33
aI24
aI28
aI38
aI17
aI16
aI47
aI25
aI11
aI22
aI18
aI24
aI30
aI40
aI19
aI22
aI22
aI49
aI30
aI26
aI27
aI25
aI21
aI16
aI29
aI34
aI32
aI29
aI29
aI31
aI16
aI17
aI11
aI30
aI26
aI35
aI23
aI36
aI4
aI26
aI25
aI38
aI20
aI25
aI25
aI22
aI15
aI32
aI21
aI13
aI17
aI35
aI35
aI24
aI22
aI23
aI31
aI35
aI24
aI20
aI36
aI28
aI25
aI21
aI17
aI28
aI16
aI23
aI26
aI47
aI28
aI18
aI20
aI34
aI42
aI32
aI15
aI42
aI29
aI24
aI20
aI26
aI19
aI32
aI25
aI25
aI26
aI25
aI28
aI600
tRp61
sg20
I0
sg21
I600
sg22
Nsbs(Vtmall_seckill
S'success'
tp62
g5
(g6
g7
NtRp63
(dp64
g10
F1478517120.7702661
sg11
F555.58651947809585
sg12
g13
((lp65
F1478517120.7702661
aF1478517302.408066
aF1478517451.9440739
aF1478517597.767585
aF1478517742.5257671
aF1478517889.8844459
aF1478518037.60957
aF1478518183.1261079
aF1478518337.963026
aF1478518482.587723
aF1478518628.9302659
aF1478518777.07126
aF1478518921.87818
aF1478519076.5794439
aF1478519227.6892109
aF1478519374.4817171
aF1478519527.7941661
aF1478519674.9014201
aF1478519820.565433
aF1478519973.2718699
aF1478520121.2795529
aF1478520270.0235729
aF1478520418.86391
aF1478520565.1225851
aF1478520763.695344
aF1478520910.233793
aF1478521056.0795431
aF1478521202.733501
aF1478521888.1603179
aF1478522036.6177609
aF1478522181.1881349
aF1478522327.205689
aF1478522472.6113801
aF1478522619.9334681
aF1478522771.824837
aF1478522919.6354139
aF1478523066.039907
aF1478523211.873893
aF1478523359.7487421
aF1478523505.807622
aF1478523653.2718949
aF1478523807.5531271
aF1478523954.89903
aF1478524106.614979
aF1478524253.574116
aF1478524400.0051711
aF1478524552.3301899
aF1478524700.1149189
aF1478524844.9144721
aF1478524988.9976349
aF1478534033.373323
aF1478534179.674511
aF1478534324.4755011
aF1478534470.5718279
aF1478534617.976258
aF1478534764.3507071
aF1478534910.739095
aF1478535061.4535861
aF1478535208.9681189
aF1478535357.0785661
aF1478535503.579819
aF1478535647.9426551
aF1478535795.2496331
aF1478535943.45016
aF1478536090.188189
aF1478536235.2533481
aF1478536397.0949011
aF1478536545.091886
aF1478536691.7878029
aF1478536839.0053411
aF1478536984.1861629
aF1478537130.797765
aF1478537287.001179
aF1478537433.850256
aF1478537584.5566051
aF1478537729.6802161
aF1478537873.8079441
aF1478538018.9169381
aF1478538167.1965129
aF1478538313.7467561
aF1478564620.2701671
aF1478564764.7987399
aF1478564913.7003729
aF1478565059.696897
aF1478565204.7489021
aF1478565356.1442189
aF1478565883.29337
aF1478566030.613059
aF1478566176.3191969
aF1478566323.111773
aF1478566469.808403
aF1478566625.43628
aF1478566773.357475
aF1478566919.7902961
aF1478567066.1313901
aF1478567213.02161
aF1478567357.4037781
aF1478567506.696759
aF1478567652.960192
aF1478567800.551049
aF1478567947.8142231
aF1478568095.3720491
aF1478568244.319226
aF1478568402.4362481
aF1478568549.33887
aF1478568693.6707361
aF1478568837.7625239
aF1478568982.832808
aF1478569130.919122
aF1478569281.5735431
aF1478569428.4152031
aF1478569575.1804719
aF1478569721.5968549
aF1478569867.8123469
aF1478570013.790962
aF1478570163.53422
aF1478570308.5712099
aF1478570455.476011
aF1478570606.777765
aF1478570755.5518839
aF1478570900.1454999
aF1478571092.337781
aF1478571248.026947
aF1478571402.447284
aF1478571547.5303299
aF1478571699.54161
aF1478571843.950985
aF1478571989.959965
aF1478572134.9183991
aF1478572285.7452121
aF1478572429.7711871
aF1478572576.980772
aF1478572742.257288
aF1478577806.597723
aF1478577954.308475
aF1478578102.085037
aF1478578247.6310561
aF1478578394.3623049
aF1478578544.8433671
aF1478578694.9169681
aF1478578842.0927789
aF1478578992.761313
aF1478579137.3450389
aF1478579286.126915
aF1478579440.767108
aF1478579586.6516891
aF1478579732.666044
aF1478579885.0630579
aF1478580029.659672
aF1478580176.624733
aF1478580326.9721429
aF1478580477.3371
aF1478580623.720036
aF1478580767.7238741
aF1478580937.2505479
aF1478581086.716902
aF1478581239.5795519
aF1478581388.5837209
aF1478581534.3596361
aF1478581685.2390659
aF1478581831.7942309
aF1478581975.864825
aF1478582122.6059351
aF1478582267.854274
aF1478582415.076679
aF1478582559.357249
aF1478582733.3171329
aF1478582880.245887
aF1478583027.2476001
aF1478583179.706043
aF1478583325.152194
aF1478583469.7959919
aF1478583620.1537011
aF1478583765.0241251
aF1478583920.9355049
aF1478584065.3120699
aF1478584219.053633
aF1478584370.906775
aF1478584524.877171
aF1478584668.881264
aF1478584819.423444
aF1478584975.3106799
aF1478585120.284976
aF1478585268.692971
aF1478585414.800504
aF1478585559.793628
aF1478585707.290906
aF1478585854.3034661
aF1478586000.105108
aF1478586153.7990119
aF1478586300.420965
aF1478586447.0156281
aF1478586592.073211
aF1478586738.5516119
aF1478586898.4245739
aF1478587047.972286
aF1478587216.226558
aF1478587384.558888
aF1478587529.511673
aF1478587682.4034209
aF1478587826.7144129
aF1478587974.928968
aF1478588119.8036959
aF1478588266.2749059
aF1478588414.863198
aF1478588564.2176061
aF1478588708.853605
aF1478588853.08286
aF1478588997.8349171
aF1478589143.8474269
aF1478589290.6405909
aF1478589436.0010419
aF1478589582.2502191
aF1478589729.4350951
aF1478589879.3088989
aF1478590025.365392
aF1478590173.7051511
aF1478590319.175693
aF1478590471.881618
aF1478590618.7397859
aF1478590765.602108
aF1478590913.8685551
aF1478591064.2960451
aF1478591208.940614
aF1478591354.4557641
aF1478591526.206979
aF1478591672.9778709
aF1478591820.2807961
aF1478591966.7990601
aF1478592112.8701639
aF1478592260.2116101
aF1478592407.2026789
aF1478592551.533335
aF1478592703.9838369
aF1478592852.6530931
aF1478593001.9377329
aF1478593147.7237999
aF1478593291.9836581
aF1478593444.268466
aF1478593592.1902781
aF1478593736.7744091
aF1478593885.0293331
aF1478594029.965838
aF1478594176.655905
aF1478594323.220104
aF1478594471.494308
aF1478594617.6734271
aF1478594764.2149439
aI600
tRp66
sg16
I144
sg17
g13
((lp67
I11
aI23
aI31
aI26
aI34
aI29
aI21
aI36
aI30
aI26
aI20
aI21
aI24
aI32
aI36
aI26
aI26
aI22
aI27
aI20
aI29
aI30
aI26
aI3
aI25
aI26
aI3
aI4
aI21
aI29
aI28
aI23
aI28
aI27
aI29
aI23
aI28
aI24
aI28
aI26
aI22
aI21
aI26
aI28
aI26
aI23
aI26
aI27
aI25
aI15
aI29
aI29
aI25
aI26
aI27
aI28
aI29
aI24
aI25
aI28
aI26
aI28
aI27
aI28
aI24
aI20
aI20
aI25
aI27
aI27
aI27
aI26
aI30
aI26
aI22
aI24
aI28
aI28
aI21
aI4
aI28
aI28
aI27
aI28
aI26
aI6
aI24
aI21
aI28
aI27
aI26
aI24
aI23
aI24
aI28
aI26
aI23
aI28
aI28
aI27
aI21
aI23
aI27
aI29
aI24
aI28
aI28
aI28
aI24
aI23
aI26
aI26
aI26
aI27
aI28
aI20
aI21
aI18
aI11
aI11
aI10
aI19
aI15
aI15
aI26
aI30
aI27
aI24
aI24
aI26
aI49
aI46
aI11
aI26
aI28
aI28
aI30
aI26
aI29
aI28
aI24
aI28
aI27
aI30
aI29
aI25
aI25
aI22
aI26
aI24
aI19
aI18
aI26
aI25
aI17
aI20
aI19
aI27
aI27
aI29
aI25
aI28
aI23
aI29
aI25
aI28
aI29
aI21
aI28
aI29
aI24
aI24
aI26
aI27
aI28
aI26
aI27
aI26
aI23
aI21
aI17
aI27
aI29
aI29
aI25
aI25
aI26
aI26
aI20
aI21
aI23
aI24
aI22
aI21
aI23
aI24
aI19
aI23
aI23
aI26
aI29
aI25
aI25
aI27
aI25
aI23
aI21
aI23
aI21
aI26
aI27
aI28
aI29
aI21
aI26
aI28
aI25
aI25
aI29
aI26
aI26
aI27
aI27
aI26
aI19
aI21
aI26
aI27
aI26
aI29
aI27
aI27
aI26
aI25
aI17
aI32
aI26
aI26
aI28
aI28
aI17
aI20
aI28
aI20
aI21
aI19
aI20
aI6
aI600
tRp68
sg20
I0
sg21
I600
sg22
Nsbs.